8b000: 0000 0000                      ori.b   #$0, D0
8b004: 0000 0000                      ori.b   #$0, D0
8b008: 0000 0000                      ori.b   #$0, D0
8b00c: 0000 0000                      ori.b   #$0, D0
8b010: 0000 0000                      ori.b   #$0, D0
8b014: 0000 0000                      ori.b   #$0, D0
8b018: 0000 0000                      ori.b   #$0, D0
8b01c: 0000 0000                      ori.b   #$0, D0
8b020: 0000 0000                      ori.b   #$0, D0
8b024: 0000 0000                      ori.b   #$0, D0
8b028: 0000 0000                      ori.b   #$0, D0
8b02c: 0000 0000                      ori.b   #$0, D0
8b030: 0000 0000                      ori.b   #$0, D0
8b034: 0000 0000                      ori.b   #$0, D0
8b038: 0000 0000                      ori.b   #$0, D0
8b03c: 0000 0000                      ori.b   #$0, D0
8b040: 0000 0000                      ori.b   #$0, D0
8b044: 0000 0000                      ori.b   #$0, D0
8b048: 0000 0000                      ori.b   #$0, D0
8b04c: 0000 0000                      ori.b   #$0, D0
8b050: 0000 0000                      ori.b   #$0, D0
8b054: 0000 0000                      ori.b   #$0, D0
8b058: 0000 0000                      ori.b   #$0, D0
8b05c: 0000 0000                      ori.b   #$0, D0
8b060: 0000 0000                      ori.b   #$0, D0
8b064: 0000 0000                      ori.b   #$0, D0
8b068: 0000 0000                      ori.b   #$0, D0
8b06c: 0000 0000                      ori.b   #$0, D0
8b070: 0000 0000                      ori.b   #$0, D0
8b074: 0000 0000                      ori.b   #$0, D0
8b078: 0000 0000                      ori.b   #$0, D0
8b07c: 0000 0000                      ori.b   #$0, D0
8b080: 0000 0000                      ori.b   #$0, D0
8b084: 0000 0000                      ori.b   #$0, D0
8b088: 0000 0000                      ori.b   #$0, D0
8b08c: 0000 0000                      ori.b   #$0, D0
8b090: 0000 0000                      ori.b   #$0, D0
8b094: 0000 0000                      ori.b   #$0, D0
8b098: 0000 0000                      ori.b   #$0, D0
8b09c: 0000 0000                      ori.b   #$0, D0
8b0a0: 0000 0000                      ori.b   #$0, D0
8b0a4: 0000 0000                      ori.b   #$0, D0
8b0a8: 0000 0000                      ori.b   #$0, D0
8b0ac: 0000 0000                      ori.b   #$0, D0
8b0b0: 0000 0000                      ori.b   #$0, D0
8b0b4: 0000 0000                      ori.b   #$0, D0
8b0b8: 0000 0000                      ori.b   #$0, D0
8b0bc: 0000 0000                      ori.b   #$0, D0
8b0c0: 0000 0000                      ori.b   #$0, D0
8b0c4: 0000 0000                      ori.b   #$0, D0
8b0c8: 0000 0000                      ori.b   #$0, D0
8b0cc: 0000 0000                      ori.b   #$0, D0
8b0d0: 0000 0000                      ori.b   #$0, D0
8b0d4: 0000 0000                      ori.b   #$0, D0
8b0d8: 0000 0000                      ori.b   #$0, D0
8b0dc: 0000 0000                      ori.b   #$0, D0
8b0e0: 0000 0000                      ori.b   #$0, D0
8b0e4: 0000 0000                      ori.b   #$0, D0
8b0e8: 0000 0000                      ori.b   #$0, D0
8b0ec: 0000 0000                      ori.b   #$0, D0
8b0f0: 0000 0000                      ori.b   #$0, D0
8b0f4: 0000 0000                      ori.b   #$0, D0
8b0f8: 0000 0000                      ori.b   #$0, D0
8b0fc: 0000 0000                      ori.b   #$0, D0
8b100: 0000 0000                      ori.b   #$0, D0
8b104: 0000 0000                      ori.b   #$0, D0
8b108: 0000 0000                      ori.b   #$0, D0
8b10c: 0000 0000                      ori.b   #$0, D0
8b110: 0000 0000                      ori.b   #$0, D0
8b114: 0000 0000                      ori.b   #$0, D0
8b118: 0000 0000                      ori.b   #$0, D0
8b11c: 0000 0000                      ori.b   #$0, D0
8b120: 0000 0000                      ori.b   #$0, D0
8b124: 0000 0000                      ori.b   #$0, D0
8b128: 0000 0000                      ori.b   #$0, D0
8b12c: 0000 0000                      ori.b   #$0, D0
8b130: 0000 0000                      ori.b   #$0, D0
8b134: 0000 0000                      ori.b   #$0, D0
8b138: 0000 0000                      ori.b   #$0, D0
8b13c: 0000 0000                      ori.b   #$0, D0
8b140: 0000 0000                      ori.b   #$0, D0
8b144: 0000 0000                      ori.b   #$0, D0
8b148: 0000 0000                      ori.b   #$0, D0
8b14c: 0000 9800                      ori.b   #$0, D0
8b150: 8000                           or.b    D0, D0
8b152: 1008                           dc.w    $1008; ILLEGAL
8b154: 0000 4028                      ori.b   #$28, D0
8b158: 6038                           bra     $8b192
8b15a: 600a                           bra     $8b166
8b15c: 0008                           dc.w    $0008; ILLEGAL
8b15e: 00ec 03d2 0614                 cmp2.b  ($614,A4), D0; (2+)
8b164: 0682 0c40 000b                 addi.l  #$c40000b, D2
8b16a: 6222                           bhi     $8b18e
8b16c: e348                           lsl.w   #1, D0
8b16e: 303b 0006                      move.w  ($6,PC,D0.w), D0
8b172: 4efb 0002                      jmp     ($2,PC,D0.w)
8b176: 0018 011a                      ori.b   #$1a, (A0)+
8b17a: 019a                           bclr    D0, (A2)+
8b17c: 03fc                           dc.w    $03fc; ILLEGAL
8b17e: 0018 0018                      ori.b   #$18, (A0)+
8b182: 0018 0130                      ori.b   #$30, (A0)+
8b186: 0154                           bchg    D0, (A4)
8b188: 044a                           dc.w    $044a; ILLEGAL
8b18a: 04e4                           dc.w    $04e4; ILLEGAL
8b18c: 0dda                           bset    D6, (A2)+
8b18e: 70ff                           moveq   #-$1, D0
8b190: 4e75                           rts
8b192: 2678 02b6                      movea.l $2b6.w, A3
8b196: 266b 0070                      movea.l ($70,A3), A3
8b19a: 48eb 0704 02c4                 movem.l D2/A0-A2, ($2c4,A3)
8b1a0: c54b                           exg     A2, A3
8b1a2: 4a00                           tst.b   D0
8b1a4: 6700 0092                      beq     $8b238
8b1a8: 4a2a 02ba                      tst.b   ($2ba,A2)
8b1ac: 661c                           bne     $8b1ca
8b1ae: 254b 02bc                      move.l  A3, ($2bc,A2)
8b1b2: 2549 02e6                      move.l  A1, ($2e6,A2)
8b1b6: 6100 01d8                      bsr     $8b390
8b1ba: 103c 00ff                      move.b  #$ff, D0
8b1be: 323c ffff                      move.w  #$ffff, D1
8b1c2: 6100 0dcc                      bsr     $8bf90
8b1c6: 50ea 02ba                      st      ($2ba,A2)
8b1ca: 50ea 060a                      st      ($60a,A2)
8b1ce: 1012                           move.b  (A2), D0
8b1d0: 4241                           clr.w   D1
8b1d2: 6100 0dbc                      bsr     $8bf90
8b1d6: 1482                           move.b  D2, (A2)
8b1d8: 1003                           move.b  D3, D0
8b1da: 323c 8000                      move.w  #$8000, D1
8b1de: 6100 0db0                      bsr     $8bf90
8b1e2: 2278 01dc                      movea.l $1dc.w, A1
8b1e6: 12bc 0006                      move.b  #$6, (A1)
8b1ea: 4e71                           nop
8b1ec: 1292                           move.b  (A2), (A1)
8b1ee: 6100 056a                      bsr     $8b75a
8b1f2: 4240                           clr.w   D0
8b1f4: 1012                           move.b  (A2), D0
8b1f6: d040                           add.w   D0, D0
8b1f8: 47ea 06ee                      lea     ($6ee,A2), A3
8b1fc: d6c0                           adda.w  D0, A3
8b1fe: 0c53 8001                      cmpi.w  #-$7fff, (A3)
8b202: 6628                           bne     $8b22c
8b204: 700c                           moveq   #$c, D0
8b206: 2678 0b18                      movea.l $b18.w, A3
8b20a: 182a 02e4                      move.b  ($2e4,A2), D4
8b20e: 2f0a                           move.l  A2, -(A7)
8b210: 246a 02bc                      movea.l ($2bc,A2), A2
8b214: 4eab 0002                      jsr     ($2,A3)
8b218: 4a40                           tst.w   D0
8b21a: 6706                           beq     $8b222
8b21c: 7005                           moveq   #$5, D0
8b21e: 4eab 0002                      jsr     ($2,A3)
8b222: 245f                           movea.l (A7)+, A2
8b224: 4253                           clr.w   (A3)
8b226: 426a 06ec                      clr.w   ($6ec,A2)
8b22a: 6010                           bra     $8b23c
8b22c: 36bc ffff                      move.w  #$ffff, (A3)
8b230: 357c 0001 06ec                 move.w  #$1, ($6ec,A2)
8b236: 6004                           bra     $8b23c
8b238: 6100 0518                      bsr     $8b752
8b23c: 4cea 0704 02c4                 movem.l ($2c4,A2), D2/A0-A2
8b242: 4ed0                           jmp     (A0)
8b244: 3906                           move.w  D6, -(A4)
8b246: 8002                           or.b    D2, D0
8b248: 0000 0835                      ori.b   #$35, D0
8b24c: 372e 302e                      move.w  ($302e,A6), -(A3)
8b250: 3666                           movea.w -(A6), A3
8b252: 3200                           move.w  D0, D1
8b254: 3b53 4343                      move.w  (A3), ($4343,A5)
8b258: 204c                           movea.l A4, A0
8b25a: 6f63                           ble     $8b2bf
8b25c: 616c                           bsr     $8b2ca
8b25e: 5461                           addq.w  #2, -(A1)
8b260: 6c6b                           bge     $8b2cd
8b262: 2042                           movea.l D2, A0
8b264: 2076 3537 2e30 2e36 6632 3b20  movea.l ([$2e302e36,A6],D3.w*4,$3b20), A0
8b270: a920                           dc.w    $a920; opcode 1010
8b272: 4170                           dc.w    $4170; ILLEGAL
8b274: 706c                           moveq   #$6c, D0
8b276: 6520                           bcs     $8b298
8b278: 436f                           dc.w    $436f; ILLEGAL
8b27a: 6d70                           blt     $8b2ec
8b27c: 7574                           dc.w    $7574; ILLEGAL
8b27e: 6572                           bcs     $8b2f2
8b280: 2c20                           move.l  -(A0), D6
8b282: 496e                           dc.w    $496e; ILLEGAL
8b284: 632e                           bls     $8b2b4
8b286: 2031 3938 342d 3139            move.l  ($342d3139,A1,D3.l), D0
8b28e: 3932 48e7                      move.w  (-$19,A2,D4.l), -(A4)
8b292: 4800                           nbcd    D0
8b294: 41fa fec2                      lea     ($8b158,PC), A0
8b298: a128                           dc.w    $a128; opcode 1010
8b29a: 2f08                           move.l  A0, -(A7)
8b29c: a992                           dc.w    $a992; opcode 1010
8b29e: 4cdf 0012                      movem.l (A7)+, D1/D4
8b2a2: 4240                           clr.w   D0
8b2a4: 4e75                           rts
8b2a6: 2478 02b6                      movea.l $2b6.w, A2
8b2aa: 246a 0070                      movea.l ($70,A2), A2
8b2ae: 617e                           bsr     $8b32e
8b2b0: 6616                           bne     $8b2c8
8b2b2: 41fa 02f0                      lea     ($8b5a4,PC), A0
8b2b6: 2548 06d2                      move.l  A0, ($6d2,A2)
8b2ba: 2278 0b18                      movea.l $b18.w, A1
8b2be: 41ea 06cc                      lea     ($6cc,A2), A0
8b2c2: 7017                           moveq   #$17, D0
8b2c4: 4ea9 0002                      jsr     ($2,A1)
8b2c8: 4e75                           rts
8b2ca: 2478 02b6                      movea.l $2b6.w, A2
8b2ce: 246a 0070                      movea.l ($70,A2), A2
8b2d2: 48e7 4020                      movem.l D1/A2, -(A7)
8b2d6: 41ea 06cc                      lea     ($6cc,A2), A0
8b2da: 2278 0b18                      movea.l $b18.w, A1
8b2de: 7018                           moveq   #$18, D0
8b2e0: 4ea9 0002                      jsr     ($2,A1)
8b2e4: 2478 02b6                      movea.l $2b6.w, A2
8b2e8: 246a 0070                      movea.l ($70,A2), A2
8b2ec: 41ea 06ee                      lea     ($6ee,A2), A0
8b2f0: 203c 0000 00fd                 move.l  #$fd, D0
8b2f6: 5440                           addq.w  #2, D0
8b2f8: 7200                           moveq   #$0, D1
8b2fa: 4270 1000                      clr.w   (A0,D1.w)
8b2fe: 5441                           addq.w  #2, D1
8b300: 51c8 fff8                      dbra    D0, $8b2fa
8b304: 426a 06ec                      clr.w   ($6ec,A2)
8b308: 4cdf 0402                      movem.l (A7)+, D1/A2
8b30c: 613c                           bsr     $8b34a
8b30e: 4e75                           rts
8b310: 2478 02b6                      movea.l $2b6.w, A2
8b314: 246a 0070                      movea.l ($70,A2), A2
8b318: 2f0a                           move.l  A2, -(A7)
8b31a: 612e                           bsr     $8b34a
8b31c: 2457                           movea.l (A7), A2
8b31e: 2278 0b18                      movea.l $b18.w, A1
8b322: 7003                           moveq   #$3, D0
8b324: 4ea9 0002                      jsr     ($2,A1)
8b328: 205f                           movea.l (A7)+, A0
8b32a: a01f                           dc.w    $a01f; opcode 1010
8b32c: 4e75                           rts
8b32e: 48e7 4040                      movem.l D1/A1, -(A7)
8b332: 2278 0b18                      movea.l $b18.w, A1
8b336: 7011                           moveq   #$11, D0
8b338: 7201                           moveq   #$1, D1
8b33a: 4ea9 0002                      jsr     ($2,A1)
8b33e: 4cdf 0202                      movem.l (A7)+, D1/A1
8b342: 6602                           bne     $8b346
8b344: 7000                           moveq   #$0, D0
8b346: 4a40                           tst.w   D0
8b348: 4e75                           rts
8b34a: 4a2a 02ba                      tst.b   ($2ba,A2)
8b34e: 673e                           beq     $8b38e
8b350: 41fa 0214                      lea     ($8b566,PC), A0
8b354: 6100 0196                      bsr     $8b4ec
8b358: 41ea 0292                      lea     ($292,A2), A0
8b35c: a034                           dc.w    $a034; opcode 1010
8b35e: 41ea 0640                      lea     ($640,A2), A0
8b362: 47f8 01ba                      lea     $1ba.w, A3
8b366: 26d8                           move.l  (A0)+, (A3)+
8b368: 26d8                           move.l  (A0)+, (A3)+
8b36a: 21d8 02be                      move.l  (A0)+, $2be.w
8b36e: 422a 02ba                      clr.b   ($2ba,A2)
8b372: 0838 0008 0b22                 btst    #$8, $b22.w
8b378: 6708                           beq     $8b382
8b37a: 7000                           moveq   #$0, D0
8b37c: 08c0 0007                      bset    #$7, D0
8b380: a685                           dc.w    $a685; opcode 1010
8b382: 7012                           moveq   #$12, D0
8b384: 7201                           moveq   #$1, D1
8b386: 2278 0b18                      movea.l $b18.w, A1
8b38a: 4ea9 0002                      jsr     ($2,A1)
8b38e: 4e75                           rts
8b390: 48e7 fcfe                      movem.l D0-D5/A0-A6, -(A7)
8b394: 0838 0008 0b22                 btst    #$8, $b22.w
8b39a: 6704                           beq     $8b3a0
8b39c: 7001                           moveq   #$1, D0
8b39e: a685                           dc.w    $a685; opcode 1010
8b3a0: 9efc 0010                      suba.w  #$10, A7
8b3a4: 204f                           movea.l A7, A0
8b3a6: 7001                           moveq   #$1, D0
8b3a8: a090                           dc.w    $a090; opcode 1010
8b3aa: 3028 0002                      move.w  ($2,A0), D0
8b3ae: 5440                           addq.w  #2, D0
8b3b0: 3540 067a                      move.w  D0, ($67a,A2)
8b3b4: defc 0010                      adda.w  #$10, A7
8b3b8: 2678 02ae                      movea.l $2ae.w, A3
8b3bc: 2278 01d4                      movea.l $1d4.w, A1
8b3c0: 43e9 1e00                      lea     ($1e00,A1), A1
8b3c4: 0c2b 0003 0008                 cmpi.b  #$3, ($8,A3)
8b3ca: 6606                           bne     $8b3d2
8b3cc: 92fc 1e00                      suba.w  #$1e00, A1
8b3d0: 6010                           bra     $8b3e2
8b3d2: 0c6a 000d 067a                 cmpi.w  #$d, ($67a,A2)
8b3d8: 6608                           bne     $8b3e2
8b3da: 2278 01d8                      movea.l $1d8.w, A1
8b3de: 43e9 ffe4                      lea     (-$1c,A1), A1
8b3e2: 2549 0660                      move.l  A1, ($660,A2)
8b3e6: 41fa 013a                      lea     ($8b522,PC), A0
8b3ea: 2558 0664                      move.l  (A0)+, ($664,A2)
8b3ee: 3558 0668                      move.w  (A0)+, ($668,A2)
8b3f2: 3558 001c                      move.w  (A0)+, ($1c,A2)
8b3f6: 0c2b 0075 0009                 cmpi.b  #$75, ($9,A3)
8b3fc: 6716                           beq     $8b414
8b3fe: 0c2b 0076 0009                 cmpi.b  #$76, ($9,A3)
8b404: 670e                           beq     $8b414
8b406: 0c2b 007a 0009                 cmpi.b  #$7a, ($9,A3)
8b40c: 6706                           beq     $8b414
8b40e: 357c 2300 001c                 move.w  #$2300, ($1c,A2)
8b414: 6154                           bsr     $8b46a
8b416: 40e7                           move    SR, -(A7)
8b418: 007c 0700                      ori     #$700, SR
8b41c: 027c feff                      andi    #$feff, SR
8b420: 47f8 01ba                      lea     $1ba.w, A3
8b424: 43ea 0640                      lea     ($640,A2), A1
8b428: 41fa 0750                      lea     ($8bb7a,PC), A0
8b42c: 22d3                           move.l  (A3), (A1)+
8b42e: 26c8                           move.l  A0, (A3)+
8b430: 41fa 0904                      lea     ($8bd36,PC), A0
8b434: 22d3                           move.l  (A3), (A1)+
8b436: 26c8                           move.l  A0, (A3)+
8b438: 41fa 04d2                      lea     ($8b90c,PC), A0
8b43c: 22b8 02be                      move.l  $2be.w, (A1)
8b440: 21c8 02be                      move.l  A0, $2be.w
8b444: 41ea 0292                      lea     ($292,A2), A0
8b448: 317c 0001 0004                 move.w  #$1, ($4,A0)
8b44e: 43fa 055c                      lea     ($8b9ac,PC), A1
8b452: 2149 0006                      move.l  A1, ($6,A0)
8b456: 317c 0014 000a                 move.w  #$14, ($a,A0)
8b45c: a033                           dc.w    $a033; opcode 1010
8b45e: 6100 0082                      bsr     $8b4e2
8b462: 46df                           move    (A7)+, SR
8b464: 4cdf 7f3f                      movem.l (A7)+, D0-D5/A0-A6
8b468: 4e75                           rts
8b46a: 48e7 1300                      movem.l D3/D6-D7, -(A7)
8b46e: 2678 02ae                      movea.l $2ae.w, A3
8b472: 0c2b 0075 0009                 cmpi.b  #$75, ($9,A3)
8b478: 620e                           bhi     $8b488
8b47a: 7014                           moveq   #$14, D0
8b47c: 41fa 00ac                      lea     ($8b52a,PC), A0
8b480: 43ea 0614                      lea     ($614,A2), A1
8b484: a02e                           dc.w    $a02e; opcode 1010
8b486: 6054                           bra     $8b4dc
8b488: 6100 0b1a                      bsr     $8bfa4
8b48c: 7e00                           moveq   #$0, D7
8b48e: 3e00                           move.w  D0, D7
8b490: 6100 0be2                      bsr     $8c074
8b494: 7c00                           moveq   #$0, D6
8b496: 3c00                           move.w  D0, D6
8b498: 40e7                           move    SR, -(A7)
8b49a: 007c 0700                      ori     #$700, SR
8b49e: 027c feff                      andi    #$feff, SR
8b4a2: 7014                           moveq   #$14, D0
8b4a4: 43ea 0614                      lea     ($614,A2), A1
8b4a8: 7200                           moveq   #$0, D1
8b4aa: 3207                           move.w  D7, D1
8b4ac: 82fc 0064                      divu.w  #$64, D1
8b4b0: 41fa 008c                      lea     ($8b53e,PC), A0
8b4b4: 3618                           move.w  (A0)+, D3
8b4b6: 7400                           moveq   #$0, D2
8b4b8: 1418                           move.b  (A0)+, D2
8b4ba: 84c1                           divu.w  D1, D2
8b4bc: 9642                           sub.w   D2, D3
8b4be: 4a18                           tst.b   (A0)+
8b4c0: 6b14                           bmi     $8b4d6
8b4c2: c6c7                           mulu.w  D7, D3
8b4c4: 86fc 03e8                      divu.w  #$3e8, D3
8b4c8: 5343                           subq.w  #1, D3
8b4ca: 6a02                           bpl     $8b4ce
8b4cc: 7600                           moveq   #$0, D3
8b4ce: 32c3                           move.w  D3, (A1)+
8b4d0: 5540                           subq.w  #2, D0
8b4d2: 66e0                           bne     $8b4b4
8b4d4: 6004                           bra     $8b4da
8b4d6: c6c6                           mulu.w  D6, D3
8b4d8: 60ea                           bra     $8b4c4
8b4da: 46df                           move    (A7)+, SR
8b4dc: 4cdf 00c8                      movem.l (A7)+, D3/D6-D7
8b4e0: 4e75                           rts
8b4e2: 41fa 001a                      lea     ($8b4fe,PC), A0
8b4e6: 6104                           bsr     $8b4ec
8b4e8: 41fa 0030                      lea     ($8b51a,PC), A0
8b4ec: 2678 01dc                      movea.l $1dc.w, A3
8b4f0: 3018                           move.w  (A0)+, D0
8b4f2: 6708                           beq     $8b4fc
8b4f4: 1680                           move.b  D0, (A3)
8b4f6: e058                           ror.w   #8, D0
8b4f8: 1680                           move.b  D0, (A3)
8b4fa: 60f4                           bra     $8b4f0
8b4fc: 4e75                           rts
8b4fe: 4009                           dc.w    $4009; ILLEGAL
8b500: 2004                           move.l  D4, D0
8b502: e00a                           lsr.b   #8, D2
8b504: 0006 7e07                      ori.b   #$7, D6
8b508: 060c                           dc.w    $060c; ILLEGAL
8b50a: 000d                           dc.w    $000d; ILLEGAL
8b50c: c00e                           dc.w    $c00e; ILLEGAL
8b50e: dd03                           addx.b  D3, D6
8b510: 0002 080f                      ori.b   #$f, D2
8b514: 0901                           btst    D4, D1
8b516: 0a09                           dc.w    $0a09; ILLEGAL
8b518: 0000 700b                      ori.b   #$b, D0
8b51c: 210e                           move.l  A6, -(A0)
8b51e: 6005                           bra     $8b525
8b520: 0000 0560                      ori.b   #$60, D0
8b524: 0e41                           dc.w    $0e41; ILLEGAL
8b526: 03dd                           bset    D1, (A5)+
8b528: 2100                           move.l  D0, -(A0)
8b52a: 0035 0014 001e                 ori.b   #$14, ($1e,A5,D0.w)
8b530: 0082 0066 0010                 ori.l   #$660010, D2
8b536: 0000 0039                      ori.b   #$39, D0
8b53a: 0000 0000                      ori.b   #$0, D0
8b53e: 0073 3a00 0064                 ori.w   #$3a00, ($64,A3,D0.w)
8b544: 00ff                           dc.w    $00ff; ILLEGAL
8b546: 00c8                           dc.w    $00c8; ILLEGAL
8b548: 00ff                           dc.w    $00ff; ILLEGAL
8b54a: 01f4 00ff                      bset    D0, (-$1,A4,D0.w)
8b54e: 0190                           bclr    D0, (A0)
8b550: 72ff                           moveq   #-$1, D1
8b552: 0046 2c00                      ori.w   #$2c00, D6
8b556: 001e 0000                      ori.b   #$0, (A6)+
8b55a: 0064 5a00                      ori.w   #$5a00, -(A4)
8b55e: 003c ff00                      ori     #$0, CCR
8b562: 000a                           dc.w    $000a; ILLEGAL
8b564: 4000                           negx.b  D0
8b566: 4a09                           dc.w    $4a09; ILLEGAL
8b568: 000a                           dc.w    $000a; ILLEGAL
8b56a: 1000                           move.b  D0, D0
8b56c: 080f                           dc.w    $080f; ILLEGAL
8b56e: 0101                           btst    D0, D1
8b570: 0000 0c41                      ori.b   #$41, D0
8b574: 0016 6d1c                      ori.b   #$1c, (A6)
8b578: 2009                           move.l  A1, D0
8b57a: 47fa 001c                      lea     ($8b598,PC), A3
8b57e: 22db                           move.l  (A3)+, (A1)+
8b580: 22db                           move.l  (A3)+, (A1)+
8b582: 4299                           clr.l   (A1)+
8b584: 32db                           move.w  (A3)+, (A1)+
8b586: 4299                           clr.l   (A1)+
8b588: 4219                           clr.b   (A1)+
8b58a: 12d2                           move.b  (A2), (A1)+
8b58c: 32db                           move.w  (A3)+, (A1)+
8b58e: 2240                           movea.l D0, A1
8b590: 4240                           clr.w   D0
8b592: 4e75                           rts
8b594: 70ff                           moveq   #-$1, D0
8b596: 4e75                           rts
8b598: 0003 0016                      ori.b   #$16, D3
8b59c: 0003 9210                      ori.b   #$10, D3
8b5a0: 0001 00fe                      ori.b   #$fe, D1
8b5a4: 202f 0004                      move.l  ($4,A7), D0
8b5a8: 0c80 7370 6564                 cmpi.l  #$73706564, D0
8b5ae: 660c                           bne     $8b5bc
8b5b0: 2478 02b6                      movea.l $2b6.w, A2
8b5b4: 246a 0070                      movea.l ($70,A2), A2
8b5b8: 6100 feb0                      bsr     $8b46a
8b5bc: 7000                           moveq   #$0, D0
8b5be: 4e75                           rts
8b5c0: 48e7 70f0                      movem.l D1-D3/A0-A3, -(A7)
8b5c4: 2678 02b6                      movea.l $2b6.w, A3
8b5c8: 266b 0070                      movea.l ($70,A3), A3
8b5cc: 48eb 0704 02c4                 movem.l D2/A0-A2, ($2c4,A3)
8b5d2: c54b                           exg     A2, A3
8b5d4: 2608                           move.l  A0, D3
8b5d6: 4a2a 02ba                      tst.b   ($2ba,A2)
8b5da: 660e                           bne     $8b5ea
8b5dc: 2568 0022 02bc                 move.l  ($22,A0), ($2bc,A2)
8b5e2: 6100 fdac                      bsr     $8b390
8b5e6: 50ea 02ba                      st      ($2ba,A2)
8b5ea: 0c6a 00fd 06ec                 cmpi.w  #$fd, ($6ec,A2)
8b5f0: 6760                           beq     $8b652
8b5f2: 1428 001f                      move.b  ($1f,A0), D2
8b5f6: 7000                           moveq   #$0, D0
8b5f8: 1002                           move.b  D2, D0
8b5fa: d040                           add.w   D0, D0
8b5fc: 43ea 06ee                      lea     ($6ee,A2), A1
8b600: d2c0                           adda.w  D0, A1
8b602: 3011                           move.w  (A1), D0
8b604: 664c                           bne     $8b652
8b606: 4a6a 06ec                      tst.w   ($6ec,A2)
8b60a: 6618                           bne     $8b624
8b60c: 1482                           move.b  D2, (A2)
8b60e: 2f09                           move.l  A1, -(A7)
8b610: 2278 01dc                      movea.l $1dc.w, A1
8b614: 12bc 0006                      move.b  #$6, (A1)
8b618: 4e71                           nop
8b61a: 1292                           move.b  (A2), (A1)
8b61c: 225f                           movea.l (A7)+, A1
8b61e: 317c ffff 002a                 move.w  #$ffff, ($2a,A0)
8b624: 526a 06ec                      addq.w  #1, ($6ec,A2)
8b628: 32bc 8000                      move.w  #$8000, (A1)
8b62c: 616e                           bsr     $8b69c
8b62e: 1002                           move.b  D2, D0
8b630: 6100 0098                      bsr     $8b6ca
8b634: 6614                           bne     $8b64a
8b636: 32a8 002a                      move.w  ($2a,A0), (A1)
8b63a: 103c 00ff                      move.b  #$ff, D0
8b63e: 323c ffff                      move.w  #$ffff, D1
8b642: 6100 094c                      bsr     $8bf90
8b646: 7000                           moveq   #$0, D0
8b648: 600a                           bra     $8b654
8b64a: 4251                           clr.w   (A1)
8b64c: 536a 06ec                      subq.w  #1, ($6ec,A2)
8b650: 614a                           bsr     $8b69c
8b652: 70ce                           moveq   #-$32, D0
8b654: 4cdf 0f0e                      movem.l (A7)+, D1-D3/A0-A3
8b658: 4e75                           rts
8b65a: 48e7 6020                      movem.l D1-D2/A2, -(A7)
8b65e: 2478 02b6                      movea.l $2b6.w, A2
8b662: 246a 0070                      movea.l ($70,A2), A2
8b666: 1428 001f                      move.b  ($1f,A0), D2
8b66a: 1002                           move.b  D2, D0
8b66c: 6726                           beq     $8b694
8b66e: 0c02 00ff                      cmpi.b  #-$1, D2
8b672: 6720                           beq     $8b694
8b674: b412                           cmp.b   (A2), D2
8b676: 671c                           beq     $8b694
8b678: 6100 08fe                      bsr     $8bf78
8b67c: 3140 002a                      move.w  D0, ($2a,A0)
8b680: 6712                           beq     $8b694
8b682: 1002                           move.b  D2, D0
8b684: 7200                           moveq   #$0, D1
8b686: 6100 0908                      bsr     $8bf90
8b68a: 536a 06ec                      subq.w  #1, ($6ec,A2)
8b68e: 610c                           bsr     $8b69c
8b690: 7000                           moveq   #$0, D0
8b692: 6002                           bra     $8b696
8b694: 70ce                           moveq   #-$32, D0
8b696: 4cdf 0406                      movem.l (A7)+, D1-D2/A2
8b69a: 4e75                           rts
8b69c: 2f09                           move.l  A1, -(A7)
8b69e: 40e7                           move    SR, -(A7)
8b6a0: 007c 0700                      ori     #$700, SR
8b6a4: 027c feff                      andi    #$feff, SR
8b6a8: 123c 00d9                      move.b  #$d9, D1
8b6ac: 0c6a 0001 06ec                 cmpi.w  #$1, ($6ec,A2)
8b6b2: 6e04                           bgt     $8b6b8
8b6b4: 123c 00dd                      move.b  #$dd, D1
8b6b8: 1541 06ea                      move.b  D1, ($6ea,A2)
8b6bc: 1541 0669                      move.b  D1, ($669,A2)
8b6c0: 6100 071a                      bsr     $8bddc
8b6c4: 46df                           move    (A7)+, SR
8b6c6: 225f                           movea.l (A7)+, A1
8b6c8: 4e75                           rts
8b6ca: 48e7 7830                      movem.l D1-D4/A2-A3, -(A7)
8b6ce: 1428 001f                      move.b  ($1f,A0), D2
8b6d2: 3828 0020                      move.w  ($20,A0), D4
8b6d6: 48e7 78f0                      movem.l D1-D4/A0-A3, -(A7)
8b6da: 6120                           bsr     $8b6fc
8b6dc: 4cdf 0f1e                      movem.l (A7)+, D1-D4/A0-A3
8b6e0: 4a2a 060a                      tst.b   ($60a,A2)
8b6e4: 66fa                           bne     $8b6e0
8b6e6: 0c51 8001                      cmpi.w  #-$7fff, (A1)
8b6ea: 57cc ffea                      dbeq    D4, $8b6d6
8b6ee: 4cdf 0c1e                      movem.l (A7)+, D1-D4/A2-A3
8b6f2: 6704                           beq     $8b6f8
8b6f4: 7000                           moveq   #$0, D0
8b6f6: 4e75                           rts
8b6f8: 7001                           moveq   #$1, D0
8b6fa: 4e75                           rts
8b6fc: 50ea 060a                      st      ($60a,A2)
8b700: 6158                           bsr     $8b75a
8b702: 422a 060a                      clr.b   ($60a,A2)
8b706: 4e75                           rts
8b708: 47ea 060d                      lea     ($60d,A2), A3
8b70c: 161b                           move.b  (A3)+, D3
8b70e: 1413                           move.b  (A3), D2
8b710: d51b                           add.b   D2, (A3)+
8b712: 6110                           bsr     $8b724
8b714: 6f20                           ble     $8b736
8b716: d603                           add.b   D3, D3
8b718: 5203                           addq.b  #1, D3
8b71a: 0243 000f                      andi.w  #$f, D3
8b71e: 422b ffff                      clr.b   (-$1,A3)
8b722: 601c                           bra     $8b740
8b724: 7000                           moveq   #$0, D0
8b726: 7207                           moveq   #$7, D1
8b728: 0302                           btst    D1, D2
8b72a: 6702                           beq     $8b72e
8b72c: 5240                           addq.w  #1, D0
8b72e: 51c9 fff8                      dbra    D1, $8b728
8b732: 5500                           subq.b  #2, D0
8b734: 4e75                           rts
8b736: 1413                           move.b  (A3), D2
8b738: 61ea                           bsr     $8b724
8b73a: 6c04                           bge     $8b740
8b73c: e20b                           lsr.b   #1, D3
8b73e: 50d3                           st      (A3)
8b740: 1413                           move.b  (A3), D2
8b742: d51b                           add.b   D2, (A3)+
8b744: 7020                           moveq   #$20, D0
8b746: 16c0                           move.b  D0, (A3)+
8b748: 1680                           move.b  D0, (A3)
8b74a: 5b4b                           subq.w  #5, A3
8b74c: 16c3                           move.b  D3, (A3)+
8b74e: 16c3                           move.b  D3, (A3)+
8b750: 4e75                           rts
8b752: 422a 060a                      clr.b   ($60a,A2)
8b756: 2549 05fc                      move.l  A1, ($5fc,A2)
8b75a: 255f 0600                      move.l  (A7)+, ($600,A2)
8b75e: 08ea 0002 06c6                 bset    #$2, ($6c6,A2)
8b764: 1542 0606                      move.b  D2, ($606,A2)
8b768: 40e7                           move    SR, -(A7)
8b76a: 007c 0700                      ori     #$700, SR
8b76e: 027c feff                      andi    #$feff, SR
8b772: 082a 0001 06c6                 btst    #$1, ($6c6,A2)
8b778: 6600 00d8                      bne     $8b852
8b77c: 46df                           move    (A7)+, SR
8b77e: 08aa 0002 06c6                 bclr    #$2, ($6c6,A2)
8b784: 6702                           beq     $8b788
8b786: 6180                           bsr     $8b708
8b788: 2078 01d8                      movea.l $1d8.w, A0
8b78c: 2278 01dc                      movea.l $1dc.w, A1
8b790: 40e7                           move    SR, -(A7)
8b792: 3600                           move.w  D0, D3
8b794: 0810 0004                      btst    #$4, (A0)
8b798: 6742                           beq     $8b7dc
8b79a: 6100 02b4                      bsr     $8ba50
8b79e: c02a 060c                      and.b   ($60c,A2), D0
8b7a2: 0240 000f                      andi.w  #$f, D0
8b7a6: 3600                           move.w  D0, D3
8b7a8: 670a                           beq     $8b7b4
8b7aa: 6100 00b6                      bsr     $8b862
8b7ae: 672c                           beq     $8b7dc
8b7b0: 5340                           subq.w  #1, D0
8b7b2: 66f6                           bne     $8b7aa
8b7b4: 007c 0700                      ori     #$700, SR
8b7b8: 027c feff                      andi    #$feff, SR
8b7bc: 082a 0001 06c6                 btst    #$1, ($6c6,A2)
8b7c2: 6600 008e                      bne     $8b852
8b7c6: 7003                           moveq   #$3, D0
8b7c8: 5643                           addq.w  #3, D3
8b7ca: 12bc 000e                      move.b  #$e, (A1)
8b7ce: 4e71                           nop
8b7d0: 12bc 0041                      move.b  #$41, (A1)
8b7d4: 6100 008c                      bsr     $8b862
8b7d8: 57c8 fff0                      dbeq    D0, $8b7ca
8b7dc: 6700 00e6                      beq     $8b8c4
8b7e0: 12bc 000a                      move.b  #$a, (A1)
8b7e4: 142a 0606                      move.b  ($606,A2), D2
8b7e8: 4a10                           tst.b   (A0)
8b7ea: 6b00 00d8                      bmi     $8b8c4
8b7ee: 12bc 0005                      move.b  #$5, (A1)
8b7f2: 7084                           moveq   #-$7c, D0
8b7f4: 12bc 0062                      move.b  #$62, (A1)
8b7f8: 4a2a 060a                      tst.b   ($60a,A2)
8b7fc: 6706                           beq     $8b804
8b7fe: 7081                           moveq   #-$7f, D0
8b800: 1552 06ca                      move.b  (A2), ($6ca,A2)
8b804: 12bc 0005                      move.b  #$5, (A1)
8b808: 4e71                           nop
8b80a: 12aa 0665                      move.b  ($665,A2), (A1)
8b80e: 322a 0626                      move.w  ($626,A2), D1
8b812: 2048                           movea.l A0, A0
8b814: 51c9 fffe                      dbra    D1, $8b814
8b818: 6100 0300                      bsr     $8bb1a
8b81c: 5202                           addq.b  #1, D2
8b81e: 6756                           beq     $8b876
8b820: 422a 0608                      clr.b   ($608,A2)
8b824: 6100 020e                      bsr     $8ba34
8b828: 4a2a 060a                      tst.b   ($60a,A2)
8b82c: 6718                           beq     $8b846
8b82e: 7000                           moveq   #$0, D0
8b830: 102a 0606                      move.b  ($606,A2), D0
8b834: d040                           add.w   D0, D0
8b836: 47ea 06ee                      lea     ($6ee,A2), A3
8b83a: 3033 0000                      move.w  (A3,D0.w), D0
8b83e: 0c40 8001                      cmpi.w  #-$7fff, D0
8b842: 665c                           bne     $8b8a0
8b844: 6044                           bra     $8b88a
8b846: 4a2a 0608                      tst.b   ($608,A2)
8b84a: 50ea 0608                      st      ($608,A2)
8b84e: 6750                           beq     $8b8a0
8b850: 6034                           bra     $8b886
8b852: 08ea 0000 06c6                 bset    #$0, ($6c6,A2)
8b858: 46df                           move    (A7)+, SR
8b85a: 4cea 0704 02c4                 movem.l ($2c4,A2), D2/A0-A2
8b860: 4e75                           rts
8b862: 322a 0622                      move.w  ($622,A2), D1
8b866: 6006                           bra     $8b86e
8b868: 51c9 fffe                      dbra    D1, $8b868
8b86c: 6002                           bra     $8b870
8b86e: 60f8                           bra     $8b868
8b870: 0810 0004                      btst    #$4, (A0)
8b874: 4e75                           rts
8b876: 61ea                           bsr     $8b862
8b878: 6726                           beq     $8b8a0
8b87a: 0c6a 0072 0622                 cmpi.w  #$72, ($622,A2)
8b880: 6504                           bcs     $8b886
8b882: 61de                           bsr     $8b862
8b884: 671a                           beq     $8b8a0
8b886: 6100 0212                      bsr     $8ba9a
8b88a: 7000                           moveq   #$0, D0
8b88c: 52aa 068a                      addq.l  #1, ($68a,A2)
8b890: 46df                           move    (A7)+, SR
8b892: 206a 0600                      movea.l ($600,A2), A0
8b896: 42aa 0600                      clr.l   ($600,A2)
8b89a: 42aa 05fc                      clr.l   ($5fc,A2)
8b89e: 4ed0                           jmp     (A0)
8b8a0: 52aa 06a6                      addq.l  #1, ($6a6,A2)
8b8a4: 46d7                           move    (A7), SR
8b8a6: 08ea 0000 060e                 bset    #$0, ($60e,A2)
8b8ac: 102a 060c                      move.b  ($60c,A2), D0
8b8b0: d000                           add.b   D0, D0
8b8b2: 5200                           addq.b  #1, D0
8b8b4: 1540 060c                      move.b  D0, ($60c,A2)
8b8b8: 70a1                           moveq   #-$5f, D0
8b8ba: 532a 0611                      subq.b  #1, ($611,A2)
8b8be: 67d0                           beq     $8b890
8b8c0: 6000 fed0                      bra     $8b792
8b8c4: 9640                           sub.w   D0, D3
8b8c6: 5943                           subq.w  #4, D3
8b8c8: 6d18                           blt     $8b8e2
8b8ca: 52aa 06aa                      addq.l  #1, ($6aa,A2)
8b8ce: 70a1                           moveq   #-$5f, D0
8b8d0: 532a 0610                      subq.b  #1, ($610,A2)
8b8d4: 67ba                           beq     $8b890
8b8d6: 08ea 0000 060c                 bset    #$0, ($60c,A2)
8b8dc: 08ea 0000 060f                 bset    #$0, ($60f,A2)
8b8e2: 007c 0700                      ori     #$700, SR
8b8e6: 027c feff                      andi    #$feff, SR
8b8ea: 12bc 000f                      move.b  #$f, (A1)
8b8ee: 103c 0088                      move.b  #$88, D0
8b8f2: 1280                           move.b  D0, (A1)
8b8f4: 08ea 0000 06c6                 bset    #$0, ($6c6,A2)
8b8fa: 157c 0002 060b                 move.b  #$2, ($60b,A2)
8b900: 7000                           moveq   #$0, D0
8b902: 4cea 0704 02c4                 movem.l ($2c4,A2), D2/A0-A2
8b908: 46df                           move    (A7)+, SR
8b90a: 4e75                           rts
8b90c: 2478 02b6                      movea.l $2b6.w, A2
8b910: 246a 0070                      movea.l ($70,A2), A2
8b914: 0801 0003                      btst    #$3, D1
8b918: 670e                           beq     $8b928
8b91a: 1f01                           move.b  D1, -(A7)
8b91c: 2678 02c2                      movea.l $2c2.w, A3
8b920: 52aa 06c2                      addq.l  #1, ($6c2,A2)
8b924: 4e93                           jsr     (A3)
8b926: 121f                           move.b  (A7)+, D1
8b928: 0801 0007                      btst    #$7, D1
8b92c: 6762                           beq     $8b990
8b92e: 4a2a 060b                      tst.b   ($60b,A2)
8b932: 6700 045e                      beq     $8bd92
8b936: 12bc 000f                      move.b  #$f, (A1)
8b93a: 103c 0008                      move.b  #$8, D0
8b93e: 1280                           move.b  D0, (A1)
8b940: 422a 060b                      clr.b   ($60b,A2)
8b944: 08aa 0001 06c6                 bclr    #$1, ($6c6,A2)
8b94a: 08aa 0000 06c6                 bclr    #$0, ($6c6,A2)
8b950: 6700 0440                      beq     $8bd92
8b954: 40c0                           move    SR, D0
8b956: 0240 f8ff                      andi.w  #$f8ff, D0
8b95a: 0a40 2000                      eori.w  #$2000, D0
8b95e: 3f2a 001c                      move.w  ($1c,A2), -(A7)
8b962: b157                           eor.w   D0, (A7)
8b964: 46df                           move    (A7)+, SR
8b966: 4a2a 06c7                      tst.b   ($6c7,A2)
8b96a: 6736                           beq     $8b9a2
8b96c: 41fa 0024                      lea     ($8b992,PC), A0
8b970: 200a                           move.l  A2, D0
8b972: a08f                           dc.w    $a08f; opcode 1010
8b974: 671a                           beq     $8b990
8b976: 007c 0700                      ori     #$700, SR
8b97a: 027c feff                      andi    #$feff, SR
8b97e: 4aaa 05fc                      tst.l   ($5fc,A2)
8b982: 670c                           beq     $8b990
8b984: 157c 0001 060b                 move.b  #$1, ($60b,A2)
8b98a: 08ea 0000 06c6                 bset    #$0, ($6c6,A2)
8b990: 4e75                           rts
8b992: 2478 02b6                      movea.l $2b6.w, A2
8b996: 246a 0070                      movea.l ($70,A2), A2
8b99a: 2078 01d8                      movea.l $1d8.w, A0
8b99e: 2278 01dc                      movea.l $1dc.w, A1
8b9a2: 6000 fdda                      bra     $8b77e
8b9a6: 42a8 000c                      clr.l   ($c,A0)
8b9aa: 2049                           movea.l A1, A0
8b9ac: 317c 0014 000a                 move.w  #$14, ($a,A0)
8b9b2: 2478 02b6                      movea.l $2b6.w, A2
8b9b6: 246a 0070                      movea.l ($70,A2), A2
8b9ba: 2078 01d8                      movea.l $1d8.w, A0
8b9be: 2278 01dc                      movea.l $1dc.w, A1
8b9c2: 40e7                           move    SR, -(A7)
8b9c4: 007c 0700                      ori     #$700, SR
8b9c8: 027c feff                      andi    #$feff, SR
8b9cc: 4a2a 060b                      tst.b   ($60b,A2)
8b9d0: 6620                           bne     $8b9f2
8b9d2: 522a 06cb                      addq.b  #1, ($6cb,A2)
8b9d6: 0c2a 001e 06cb                 cmpi.b  #$1e, ($6cb,A2)
8b9dc: 6600 ff2a                      bne     $8b908
8b9e0: 422a 06cb                      clr.b   ($6cb,A2)
8b9e4: 12bc 0003                      move.b  #$3, (A1)
8b9e8: 4e71                           nop
8b9ea: 12aa 06ea                      move.b  ($6ea,A2), (A1)
8b9ee: 6000 ff18                      bra     $8b908
8b9f2: 532a 060b                      subq.b  #1, ($60b,A2)
8b9f6: 6600 ff10                      bne     $8b908
8b9fa: 12bc 000f                      move.b  #$f, (A1)
8b9fe: 103c 0008                      move.b  #$8, D0
8ba02: 1280                           move.b  D0, (A1)
8ba04: 6100 038c                      bsr     $8bd92
8ba08: 52aa 06ae                      addq.l  #1, ($6ae,A2)
8ba0c: 08aa 0001 06c6                 bclr    #$1, ($6c6,A2)
8ba12: 08aa 0000 06c6                 bclr    #$0, ($6c6,A2)
8ba18: 6700 feee                      beq     $8b908
8ba1c: 544f                           addq.w  #2, A7
8ba1e: 40c0                           move    SR, D0
8ba20: 0240 f8ff                      andi.w  #$f8ff, D0
8ba24: 0a40 2000                      eori.w  #$2000, D0
8ba28: 3f2a 001c                      move.w  ($1c,A2), -(A7)
8ba2c: b157                           eor.w   D0, (A7)
8ba2e: 46df                           move    (A7)+, SR
8ba30: 6000 fd4c                      bra     $8b77e
8ba34: 48e7 00f0                      movem.l A0-A3, -(A7)
8ba38: 322a 061c                      move.w  ($61c,A2), D1
8ba3c: 0810 0000                      btst    #$0, (A0)
8ba40: 56c9 fffa                      dbne    D1, $8ba3c
8ba44: 6704                           beq     $8ba4a
8ba46: 6100 0140                      bsr     $8bb88
8ba4a: 4cdf 0f00                      movem.l (A7)+, A0-A3
8ba4e: 4e75                           rts
8ba50: 302a 0604                      move.w  ($604,A2), D0
8ba54: c0fc 0305                      mulu.w  #$305, D0
8ba58: 5240                           addq.w  #1, D0
8ba5a: 3f00                           move.w  D0, -(A7)
8ba5c: e148                           lsl.w   #8, D0
8ba5e: 101f                           move.b  (A7)+, D0
8ba60: 3540 0604                      move.w  D0, ($604,A2)
8ba64: 4e75                           rts
8ba66: 056b 03d0                      bchg    D2, ($3d0,A3)
8ba6a: 322a 0618                      move.w  ($618,A2), D1
8ba6e: 2048                           movea.l A0, A0
8ba70: 0810 0002                      btst    #$2, (A0)
8ba74: 56c9 fffa                      dbne    D1, $8ba70
8ba78: 6704                           beq     $8ba7e
8ba7a: 1343 0004                      move.b  D3, ($4,A1)
8ba7e: 4a41                           tst.w   D1
8ba80: 4e75                           rts
8ba82: 47fa ffe2                      lea     ($8ba66,PC), A3
8ba86: 7604                           moveq   #$4, D3
8ba88: 6100 00e8                      bsr     $8bb72
8ba8c: 362a 061e                      move.w  ($61e,A2), D3
8ba90: 51cb fffe                      dbra    D3, $8ba90
8ba94: 12bc 0080                      move.b  #$80, (A1)
8ba98: 4e75                           rts
8ba9a: 48ea 7300 064c                 movem.l A0-A1/A4-A6, ($64c,A2)
8baa0: 2f38 0124                      move.l  $124.w, -(A7)
8baa4: 2f38 013a                      move.l  $13a.w, -(A7)
8baa8: 21cf 013a                      move.l  A7, $13a.w
8baac: 2a6a 0660                      movea.l ($660,A2), A5
8bab0: 4de8 0006                      lea     ($6,A0), A6
8bab4: 286a 05fc                      movea.l ($5fc,A2), A4
8bab8: 61c8                           bsr     $8ba82
8baba: 361c                           move.w  (A4)+, D3
8babc: 265c                           movea.l (A4)+, A3
8babe: 135b 0004                      move.b  (A3)+, ($4,A1)
8bac2: 5343                           subq.w  #1, D3
8bac4: 1692                           move.b  (A2), (A3)
8bac6: 302a 0618                      move.w  ($618,A2), D0
8baca: 2048                           movea.l A0, A0
8bacc: 0810 0002                      btst    #$2, (A0)
8bad0: 56c8 fffa                      dbne    D0, $8bacc
8bad4: 6606                           bne     $8badc
8bad6: 6100 0094                      bsr     $8bb6c
8bada: 6018                           bra     $8baf4
8badc: 135b 0004                      move.b  (A3)+, ($4,A1)
8bae0: 4a15                           tst.b   (A5)
8bae2: 6b02                           bmi     $8bae6
8bae4: 1f16                           move.b  (A6), -(A7)
8bae6: 5343                           subq.w  #1, D3
8bae8: 6edc                           bgt     $8bac6
8baea: 361c                           move.w  (A4)+, D3
8baec: 6704                           beq     $8baf2
8baee: 265c                           movea.l (A4)+, A3
8baf0: 60d4                           bra     $8bac6
8baf2: 6152                           bsr     $8bb46
8baf4: 2638 013e                      move.l  $13e.w, D3
8baf8: 670c                           beq     $8bb06
8bafa: 2843                           movea.l D3, A4
8bafc: 4e94                           jsr     (A4)
8bafe: 2478 02b6                      movea.l $2b6.w, A2
8bb02: 246a 0070                      movea.l ($70,A2), A2
8bb06: 4cea 7300 064c                 movem.l ($64c,A2), A0-A1/A4-A6
8bb0c: 2e78 013a                      movea.l $13a.w, A7
8bb10: 21df 013a                      move.l  (A7)+, $13a.w
8bb14: 21df 0124                      move.l  (A7)+, $124.w
8bb18: 4e75                           rts
8bb1a: 6100 ff66                      bsr     $8ba82
8bb1e: 1342 0004                      move.b  D2, ($4,A1)
8bb22: 1602                           move.b  D2, D3
8bb24: 0c00 0082                      cmpi.b  #-$7e, D0
8bb28: 670e                           beq     $8bb38
8bb2a: 0c00 0081                      cmpi.b  #-$7f, D0
8bb2e: 6708                           beq     $8bb38
8bb30: 162a 06ca                      move.b  ($6ca,A2), D3
8bb34: 1552 06ca                      move.b  (A2), ($6ca,A2)
8bb38: 6100 ff30                      bsr     $8ba6a
8bb3c: 6b2e                           bmi     $8bb6c
8bb3e: 1600                           move.b  D0, D3
8bb40: 6100 ff28                      bsr     $8ba6a
8bb44: 6b26                           bmi     $8bb6c
8bb46: 12bc 00c0                      move.b  #$c0, (A1)
8bb4a: e34b                           lsl.w   #1, D3
8bb4c: 0810 0006                      btst    #$6, (A0)
8bb50: 67fa                           beq     $8bb4c
8bb52: 0810 0002                      btst    #$2, (A0)
8bb56: 67fa                           beq     $8bb52
8bb58: 12bc 0005                      move.b  #$5, (A1)
8bb5c: 7600                           moveq   #$0, D3
8bb5e: 12bc 0062                      move.b  #$62, (A1)
8bb62: 362a 0614                      move.w  ($614,A2), D3
8bb66: 2048                           movea.l A0, A0
8bb68: 51cb fffe                      dbra    D3, $8bb68
8bb6c: 47ea 0664                      lea     ($664,A2), A3
8bb70: 7606                           moveq   #$6, D3
8bb72: 129b                           move.b  (A3)+, (A1)
8bb74: 5343                           subq.w  #1, D3
8bb76: 66fa                           bne     $8bb72
8bb78: 4e75                           rts
8bb7a: 2478 02b6                      movea.l $2b6.w, A2
8bb7e: 246a 0070                      movea.l ($70,A2), A2
8bb82: 52aa 0682                      addq.l  #1, ($682,A2)
8bb86: 600c                           bra     $8bb94
8bb88: 2478 02b6                      movea.l $2b6.w, A2
8bb8c: 246a 0070                      movea.l ($70,A2), A2
8bb90: 2078 01d8                      movea.l $1d8.w, A0
8bb94: 7200                           moveq   #$0, D1
8bb96: 1228 0004                      move.b  ($4,A0), D1
8bb9a: 266a 02bc                      movea.l ($2bc,A2), A3
8bb9e: 47eb 0001                      lea     ($1,A3), A3
8bba2: 16c1                           move.b  D1, (A3)+
8bba4: 1541 0001                      move.b  D1, ($1,A2)
8bba8: 302a 0616                      move.w  ($616,A2), D0
8bbac: d040                           add.w   D0, D0
8bbae: 2048                           movea.l A0, A0
8bbb0: 0810 0000                      btst    #$0, (A0)
8bbb4: 56c8 fffa                      dbne    D0, $8bbb0
8bbb8: 6712                           beq     $8bbcc
8bbba: 16a8 0004                      move.b  ($4,A0), (A3)
8bbbe: 155b 0002                      move.b  (A3)+, ($2,A2)
8bbc2: 2048                           movea.l A0, A0
8bbc4: 0810 0000                      btst    #$0, (A0)
8bbc8: 56c8 fffa                      dbne    D0, $8bbc4
8bbcc: 6700 0162                      beq     $8bd30
8bbd0: 1028 0004                      move.b  ($4,A0), D0
8bbd4: d241                           add.w   D1, D1
8bbd6: 43ea 06ee                      lea     ($6ee,A2), A1
8bbda: 3431 1000                      move.w  (A1,D1.w), D2
8bbde: 6700 011e                      beq     $8bcfe
8bbe2: 2278 01dc                      movea.l $1dc.w, A1
8bbe6: 16c0                           move.b  D0, (A3)+
8bbe8: 6b00 0084                      bmi     $8bc6e
8bbec: 4842                           swap    D2
8bbee: 1400                           move.b  D0, D2
8bbf0: 302a 0616                      move.w  ($616,A2), D0
8bbf4: d040                           add.w   D0, D0
8bbf6: 48ea 3000 02fe                 movem.l A4-A5, ($2fe,A2)
8bbfc: 246a 02bc                      movea.l ($2bc,A2), A2
8bc00: 2a78 0b18                      movea.l $b18.w, A5
8bc04: 49fa 0214                      lea     ($8be1a,PC), A4
8bc08: 0810 0000                      btst    #$0, (A0)
8bc0c: 56c8 fffa                      dbne    D0, $8bc08
8bc10: 6756                           beq     $8bc68
8bc12: 16a8 0004                      move.b  ($4,A0), (A3)
8bc16: 7203                           moveq   #$3, D1
8bc18: c21b                           and.b   (A3)+, D1
8bc1a: e149                           lsl.w   #8, D1
8bc1c: 0810 0000                      btst    #$0, (A0)
8bc20: 56c8 fffa                      dbne    D0, $8bc1c
8bc24: 6742                           beq     $8bc68
8bc26: 1228 0004                      move.b  ($4,A0), D1
8bc2a: 16c1                           move.b  D1, (A3)+
8bc2c: 0c41 0258                      cmpi.w  #$258, D1
8bc30: 6e30                           bgt     $8bc62
8bc32: 5541                           subq.w  #2, D1
8bc34: 7001                           moveq   #$1, D0
8bc36: 4ead 0002                      jsr     ($2,A5)
8bc3a: 6116                           bsr     $8bc52
8bc3c: 12bc 0001                      move.b  #$1, (A1)
8bc40: 70a0                           moveq   #-$60, D0
8bc42: c010                           and.b   (A0), D0
8bc44: 6600 01a4                      bne     $8bdea
8bc48: 52aa 069a                      addq.l  #1, ($69a,A2)
8bc4c: 4243                           clr.w   D3
8bc4e: 6000 01cc                      bra     $8be1c
8bc52: 2478 02b6                      movea.l $2b6.w, A2
8bc56: 246a 0070                      movea.l ($70,A2), A2
8bc5a: 4cea 3000 02fe                 movem.l ($2fe,A2), A4-A5
8bc60: 4e75                           rts
8bc62: 61ee                           bsr     $8bc52
8bc64: 6000 018e                      bra     $8bdf4
8bc68: 61e8                           bsr     $8bc52
8bc6a: 6000 00c4                      bra     $8bd30
8bc6e: 747f                           moveq   #$7f, D2
8bc70: c400                           and.b   D0, D2
8bc72: 0c02 0005                      cmpi.b  #$5, D2
8bc76: 6e00 00b2                      bgt     $8bd2a
8bc7a: 6100 00ca                      bsr     $8bd46
8bc7e: 6620                           bne     $8bca0
8bc80: 7000                           moveq   #$0, D0
8bc82: 102a 0001                      move.b  ($1,A2), D0
8bc86: 0c00 00ff                      cmpi.b  #-$1, D0
8bc8a: 57c1                           seq     D1
8bc8c: 6714                           beq     $8bca2
8bc8e: d040                           add.w   D0, D0
8bc90: 47ea 06ee                      lea     ($6ee,A2), A3
8bc94: d6c0                           adda.w  D0, A3
8bc96: 0c53 8000                      cmpi.w  #-$8000, (A3)
8bc9a: 6606                           bne     $8bca2
8bc9c: 36bc 8001                      move.w  #$8001, (A3)
8bca0: 4e75                           rts
8bca2: 5302                           subq.b  #1, D2
8bca4: 6744                           beq     $8bcea
8bca6: 5702                           subq.b  #3, D2
8bca8: 6712                           beq     $8bcbc
8bcaa: 4a2a 0608                      tst.b   ($608,A2)
8bcae: 6704                           beq     $8bcb4
8bcb0: 52aa 06ba                      addq.l  #1, ($6ba,A2)
8bcb4: 5302                           subq.b  #1, D2
8bcb6: 57ea 0608                      seq     ($608,A2)
8bcba: 4e75                           rts
8bcbc: 4a01                           tst.b   D1
8bcbe: 6612                           bne     $8bcd2
8bcc0: 302a 0620                      move.w  ($620,A2), D0
8bcc4: 51c8 fffe                      dbra    D0, $8bcc4
8bcc8: 7085                           moveq   #-$7b, D0
8bcca: 156a 0001 06ca                 move.b  ($1,A2), ($6ca,A2)
8bcd0: 6124                           bsr     $8bcf6
8bcd2: 322a 061a                      move.w  ($61a,A2), D1
8bcd6: 2048                           movea.l A0, A0
8bcd8: 0810 0000                      btst    #$0, (A0)
8bcdc: 56c9 fffa                      dbne    D1, $8bcd8
8bce0: 6600 fea6                      bne     $8bb88
8bce4: 52aa 06b6                      addq.l  #1, ($6b6,A2)
8bce8: 4e75                           rts
8bcea: 302a 0620                      move.w  ($620,A2), D0
8bcee: 2048                           movea.l A0, A0
8bcf0: 51c8 fffe                      dbra    D0, $8bcf0
8bcf4: 7082                           moveq   #-$7e, D0
8bcf6: 142a 0002                      move.b  ($2,A2), D2
8bcfa: 6000 fe1e                      bra     $8bb1a
8bcfe: 082a 0000 06c6                 btst    #$0, ($6c6,A2)
8bd04: 6600 008c                      bne     $8bd92
8bd08: 2278 01dc                      movea.l $1dc.w, A1
8bd0c: 12bc 000f                      move.b  #$f, (A1)
8bd10: 103c 0088                      move.b  #$88, D0
8bd14: 1280                           move.b  D0, (A1)
8bd16: 08ea 0001 06c6                 bset    #$1, ($6c6,A2)
8bd1c: 157c 0002 060b                 move.b  #$2, ($60b,A2)
8bd22: 606e                           bra     $8bd92
8bd24: 52aa 069a                      addq.l  #1, ($69a,A2)
8bd28: 6068                           bra     $8bd92
8bd2a: 52aa 06a2                      addq.l  #1, ($6a2,A2)
8bd2e: 6062                           bra     $8bd92
8bd30: 52aa 0696                      addq.l  #1, ($696,A2)
8bd34: 605c                           bra     $8bd92
8bd36: 2478 02b6                      movea.l $2b6.w, A2
8bd3a: 246a 0070                      movea.l ($70,A2), A2
8bd3e: 52aa 06be                      addq.l  #1, ($6be,A2)
8bd42: 614e                           bsr     $8bd92
8bd44: 604c                           bra     $8bd92
8bd46: 4240                           clr.w   D0
8bd48: 322a 0616                      move.w  ($616,A2), D1
8bd4c: 0810 0000                      btst    #$0, (A0)
8bd50: 56c9 fffa                      dbne    D1, $8bd4c
8bd54: 6700 00a6                      beq     $8bdfc
8bd58: 12bc 0001                      move.b  #$1, (A1)
8bd5c: 4e71                           nop
8bd5e: 1210                           move.b  (A0), D1
8bd60: 6b00 008c                      bmi     $8bdee
8bd64: 4a28 0004                      tst.b   ($4,A0)
8bd68: 322a 0616                      move.w  ($616,A2), D1
8bd6c: 0810 0000                      btst    #$0, (A0)
8bd70: 56c9 fffa                      dbne    D1, $8bd6c
8bd74: 6700 0086                      beq     $8bdfc
8bd78: 12bc 0001                      move.b  #$1, (A1)
8bd7c: 4e71                           nop
8bd7e: 1210                           move.b  (A0), D1
8bd80: 6a6c                           bpl     $8bdee
8bd82: e309                           lsl.b   #1, D1
8bd84: 6b7e                           bmi     $8be04
8bd86: 322a 0624                      move.w  ($624,A2), D1
8bd8a: 2048                           movea.l A0, A0
8bd8c: 51c9 fffe                      dbra    D1, $8bd8c
8bd90: 603c                           bra     $8bdce
8bd92: 2078 01d8                      movea.l $1d8.w, A0
8bd96: 2278 01dc                      movea.l $1dc.w, A1
8bd9a: 422a 06cb                      clr.b   ($6cb,A2)
8bd9e: 12bc 0001                      move.b  #$1, (A1)
8bda2: 4e71                           nop
8bda4: 0810 0005                      btst    #$5, (A0)
8bda8: 6706                           beq     $8bdb0
8bdaa: 08b8 0007 015f                 bclr    #$7, $15f.w
8bdb0: 12bc 0003                      move.b  #$3, (A1)
8bdb4: 4e71                           nop
8bdb6: 12aa 06ea                      move.b  ($6ea,A2), (A1)
8bdba: 4e71                           nop
8bdbc: 7202                           moveq   #$2, D1
8bdbe: 4a28 0004                      tst.b   ($4,A0)
8bdc2: 4e71                           nop
8bdc4: 12bc 0030                      move.b  #$30, (A1)
8bdc8: 4e71                           nop
8bdca: 51c9 fff2                      dbra    D1, $8bdbe
8bdce: 12bc 0030                      move.b  #$30, (A1)
8bdd2: 4e71                           nop
8bdd4: 12bc 0020                      move.b  #$20, (A1)
8bdd8: 4a40                           tst.w   D0
8bdda: 4e75                           rts
8bddc: 2278 01dc                      movea.l $1dc.w, A1
8bde0: 12bc 0003                      move.b  #$3, (A1)
8bde4: 4e71                           nop
8bde6: 1281                           move.b  D1, (A1)
8bde8: 4e75                           rts
8bdea: 1200                           move.b  D0, D1
8bdec: 7000                           moveq   #$0, D0
8bdee: 0801 0005                      btst    #$5, D1
8bdf2: 6618                           bne     $8be0c
8bdf4: 52aa 069e                      addq.l  #1, ($69e,A2)
8bdf8: 70fc                           moveq   #-$4, D0
8bdfa: 6096                           bra     $8bd92
8bdfc: 52aa 0696                      addq.l  #1, ($696,A2)
8be00: 70fd                           moveq   #-$3, D0
8be02: 608e                           bra     $8bd92
8be04: 52aa 068e                      addq.l  #1, ($68e,A2)
8be08: 70fe                           moveq   #-$2, D0
8be0a: 6086                           bra     $8bd92
8be0c: 52aa 0692                      addq.l  #1, ($692,A2)
8be10: 70ff                           moveq   #-$1, D0
8be12: 6000 ff7e                      bra     $8bd92
8be16: 6000 009e                      bra     $8beb6
8be1a: 60fa                           bra     $8be16
8be1c: 2478 02b6                      movea.l $2b6.w, A2
8be20: 246a 0070                      movea.l ($70,A2), A2
8be24: 2a6a 0660                      movea.l ($660,A2), A5
8be28: 284f                           movea.l A7, A4
8be2a: 302a 0616                      move.w  ($616,A2), D0
8be2e: 5341                           subq.w  #1, D1
8be30: 6b20                           bmi     $8be52
8be32: 2048                           movea.l A0, A0
8be34: 0810 0000                      btst    #$0, (A0)
8be38: 56c8 fffa                      dbne    D0, $8be34
8be3c: 6714                           beq     $8be52
8be3e: 1028 0004                      move.b  ($4,A0), D0
8be42: 4a15                           tst.b   (A5)
8be44: 6b04                           bmi     $8be4a
8be46: 1f28 0006                      move.b  ($6,A0), -(A7)
8be4a: 5343                           subq.w  #1, D3
8be4c: 6bdc                           bmi     $8be2a
8be4e: 16c0                           move.b  D0, (A3)+
8be50: 60d8                           bra     $8be2a
8be52: 6100 fef2                      bsr     $8bd46
8be56: 2578 013a 0634                 move.l  $13a.w, ($634,A2)
8be5c: 21cc 013a                      move.l  A4, $13a.w
8be60: 2238 013e                      move.l  $13e.w, D1
8be64: 6728                           beq     $8be8e
8be66: 48ea 480d 064c                 movem.l D0/D2-D3/A3/A6, ($64c,A2)
8be6c: 4de8 0006                      lea     ($6,A0), A6
8be70: 2041                           movea.l D1, A0
8be72: 2578 0124 0630                 move.l  $124.w, ($630,A2)
8be78: 4e90                           jsr     (A0)
8be7a: 2478 02b6                      movea.l $2b6.w, A2
8be7e: 246a 0070                      movea.l ($70,A2), A2
8be82: 21ea 0630 0124                 move.l  ($630,A2), $124.w
8be88: 4cea 480d 064c                 movem.l ($64c,A2), D0/D2-D3/A3/A6
8be8e: 2e78 013a                      movea.l $13a.w, A7
8be92: 21ea 0634 013a                 move.l  ($634,A2), $13a.w
8be98: 4a2a 060b                      tst.b   ($60b,A2)
8be9c: 6702                           beq     $8bea0
8be9e: 615e                           bsr     $8befe
8bea0: 4cea 3000 02fe                 movem.l ($2fe,A2), A4-A5
8bea6: 4a40                           tst.w   D0
8bea8: 6606                           bne     $8beb0
8beaa: 52aa 0686                      addq.l  #1, ($686,A2)
8beae: 4a40                           tst.w   D0
8beb0: 246a 02bc                      movea.l ($2bc,A2), A2
8beb4: 4e75                           rts
8beb6: 2478 02b6                      movea.l $2b6.w, A2
8beba: 246a 0070                      movea.l ($70,A2), A2
8bebe: 9243                           sub.w   D3, D1
8bec0: 302a 0616                      move.w  ($616,A2), D0
8bec4: 0810 0000                      btst    #$0, (A0)
8bec8: 56c8 fffa                      dbne    D0, $8bec4
8becc: 671c                           beq     $8beea
8bece: 16e8 0004                      move.b  ($4,A0), (A3)+
8bed2: 5343                           subq.w  #1, D3
8bed4: 66ea                           bne     $8bec0
8bed6: 12bc 0001                      move.b  #$1, (A1)
8beda: 70a0                           moveq   #-$60, D0
8bedc: c010                           and.b   (A0), D0
8bede: 67d0                           beq     $8beb0
8bee0: 6b10                           bmi     $8bef2
8bee2: 52aa 0692                      addq.l  #1, ($692,A2)
8bee6: 70ff                           moveq   #-$1, D0
8bee8: 600e                           bra     $8bef8
8beea: 52aa 0696                      addq.l  #1, ($696,A2)
8beee: 70fd                           moveq   #-$3, D0
8bef0: 6006                           bra     $8bef8
8bef2: 52aa 069e                      addq.l  #1, ($69e,A2)
8bef6: 70fc                           moveq   #-$4, D0
8bef8: 6100 fe98                      bsr     $8bd92
8befc: 60a2                           bra     $8bea0
8befe: 157c 0001 060b                 move.b  #$1, ($60b,A2)
8bf04: 2f08                           move.l  A0, -(A7)
8bf06: 2078 02ae                      movea.l $2ae.w, A0
8bf0a: 0c68 0075 0008                 cmpi.w  #$75, ($8,A0)
8bf10: 660a                           bne     $8bf1c
8bf12: 357c 0001 029c                 move.w  #$1, ($29c,A2)
8bf18: 205f                           movea.l (A7)+, A0
8bf1a: 4e75                           rts
8bf1c: 41ea 06d6                      lea     ($6d6,A2), A0
8bf20: 4a68 000c                      tst.w   ($c,A0)
8bf24: 66ec                           bne     $8bf12
8bf26: 48e7 e040                      movem.l D0-D2/A1, -(A7)
8bf2a: 43ea 0292                      lea     ($292,A2), A1
8bf2e: 2149 000c                      move.l  A1, ($c,A0)
8bf32: 317c 0007 0004                 move.w  #$7, ($4,A0)
8bf38: 43fa fa6c                      lea     ($8b9a6,PC), A1
8bf3c: 2149 0008                      move.l  A1, ($8,A0)
8bf40: 2278 0d9c                      movea.l $d9c.w, A1
8bf44: 4e91                           jsr     (A1)
8bf46: 4cdf 0207                      movem.l (A7)+, D0-D2/A1
8bf4a: 66c6                           bne     $8bf12
8bf4c: 205f                           movea.l (A7)+, A0
8bf4e: 4e75                           rts
8bf50: 2f0a                           move.l  A2, -(A7)
8bf52: 2478 02b6                      movea.l $2b6.w, A2
8bf56: 246a 0070                      movea.l ($70,A2), A2
8bf5a: 7000                           moveq   #$0, D0
8bf5c: 1028 001f                      move.b  ($1f,A0), D0
8bf60: 6100 0016                      bsr     $8bf78
8bf64: 3140 002a                      move.w  D0, ($2a,A0)
8bf68: 6606                           bne     $8bf70
8bf6a: 303c ffce                      move.w  #$ffce, D0
8bf6e: 6002                           bra     $8bf72
8bf70: 7000                           moveq   #$0, D0
8bf72: 245f                           movea.l (A7)+, A2
8bf74: 4e75                           rts
8bf76: 4e71                           nop
8bf78: 2f08                           move.l  A0, -(A7)
8bf7a: 0280 0000 00ff                 andi.l  #$ff, D0
8bf80: d040                           add.w   D0, D0
8bf82: 41ea 06ee                      lea     ($6ee,A2), A0
8bf86: 3030 0000                      move.w  (A0,D0.w), D0
8bf8a: 205f                           movea.l (A7)+, A0
8bf8c: 4e75                           rts
8bf8e: 4e71                           nop
8bf90: 2f08                           move.l  A0, -(A7)
8bf92: 0240 00ff                      andi.w  #$ff, D0
8bf96: d040                           add.w   D0, D0
8bf98: 41ea 06ee                      lea     ($6ee,A2), A0
8bf9c: 3181 0000                      move.w  D1, (A0,D0.w)
8bfa0: 205f                           movea.l (A7)+, A0
8bfa2: 4e75                           rts
8bfa4: 2078 02ae                      movea.l $2ae.w, A0
8bfa8: 0c28 0075 0009                 cmpi.b  #$75, ($9,A0)
8bfae: 651e                           bcs     $8bfce
8bfb0: 9efc 000e                      suba.w  #$e, A7
8bfb4: 204f                           movea.l A7, A0
8bfb6: 42a8 000a                      clr.l   ($a,A0)
8bfba: 317c ffff 0004                 move.w  #$ffff, ($4,A0)
8bfc0: a058                           dc.w    $a058; opcode 1010
8bfc2: 1028 0004                      move.b  ($4,A0), D0
8bfc6: 6a0c                           bpl     $8bfd4
8bfc8: a059                           dc.w    $a059; opcode 1010
8bfca: defc 000e                      adda.w  #$e, A7
8bfce: 3038 0d00                      move.w  $d00.w, D0
8bfd2: 4e75                           rts
8bfd4: a059                           dc.w    $a059; opcode 1010
8bfd6: defc 000e                      adda.w  #$e, A7
8bfda: 48e7 0f00                      movem.l D4-D7, -(A7)
8bfde: 7006                           moveq   #$6, D0
8bfe0: 4267                           clr.w   -(A7)
8bfe2: 51c8 fffc                      dbra    D0, $8bfe0
8bfe6: 7809                           moveq   #$9, D4
8bfe8: 2a3c 0000 ffff                 move.l  #$ffff, D5
8bfee: 2e3c 0393 8700                 move.l  #$3938700, D7
8bff4: 204f                           movea.l A7, A0
8bff6: 40e7                           move    SR, -(A7)
8bff8: 007c 0700                      ori     #$700, SR
8bffc: 027c feff                      andi    #$feff, SR
8c000: a058                           dc.w    $a058; opcode 1010
8c002: 2c07                           move.l  D7, D6
8c004: 2007                           move.l  D7, D0
8c006: 4480                           neg.l   D0
8c008: a05a                           dc.w    $a05a; opcode 1010
8c00a: a059                           dc.w    $a059; opcode 1010
8c00c: 46df                           move    (A7)+, SR
8c00e: dea8 000a                      add.l   ($a,A0), D7
8c012: 204f                           movea.l A7, A0
8c014: a058                           dc.w    $a058; opcode 1010
8c016: 40e7                           move    SR, -(A7)
8c018: 007c 0700                      ori     #$700, SR
8c01c: 027c feff                      andi    #$feff, SR
8c020: 2006                           move.l  D6, D0
8c022: 4480                           neg.l   D0
8c024: a05a                           dc.w    $a05a; opcode 1010
8c026: 2048                           movea.l A0, A0
8c028: 3038 0d00                      move.w  $d00.w, D0
8c02c: 51c8 fffe                      dbra    D0, $8c02c
8c030: 3038 0d00                      move.w  $d00.w, D0
8c034: 51c8 fffe                      dbra    D0, $8c034
8c038: 3038 0d00                      move.w  $d00.w, D0
8c03c: 51c8 fffe                      dbra    D0, $8c03c
8c040: 3038 0d00                      move.w  $d00.w, D0
8c044: 51c8 fffe                      dbra    D0, $8c044
8c048: a059                           dc.w    $a059; opcode 1010
8c04a: 46df                           move    (A7)+, SR
8c04c: dca8 000a                      add.l   ($a,A0), D6
8c050: 9c87                           sub.l   D7, D6
8c052: ba86                           cmp.l   D6, D5
8c054: 6502                           bcs     $8c058
8c056: 2a06                           move.l  D6, D5
8c058: 51cc ff94                      dbra    D4, $8bfee
8c05c: 3238 0d00                      move.w  $d00.w, D1
8c060: c2fc 0fa0                      mulu.w  #$fa0, D1
8c064: 82c5                           divu.w  D5, D1
8c066: 3001                           move.w  D1, D0
8c068: defc 000e                      adda.w  #$e, A7
8c06c: 4cdf 00f0                      movem.l (A7)+, D4-D7
8c070: 4e75                           rts
8c072: 0000 2078                      ori.b   #$78, D0
8c076: 02ae 0c28 0075 0009            andi.l  #$c280075, ($9,A6)
8c07e: 651e                           bcs     $8c09e
8c080: 9efc 000e                      suba.w  #$e, A7
8c084: 204f                           movea.l A7, A0
8c086: 42a8 000a                      clr.l   ($a,A0)
8c08a: 317c ffff 0004                 move.w  #$ffff, ($4,A0)
8c090: a058                           dc.w    $a058; opcode 1010
8c092: 1028 0004                      move.b  ($4,A0), D0
8c096: 6a0c                           bpl     $8c0a4
8c098: a059                           dc.w    $a059; opcode 1010
8c09a: defc 000e                      adda.w  #$e, A7
8c09e: 3038 0d02                      move.w  $d02.w, D0
8c0a2: 4e75                           rts
8c0a4: a059                           dc.w    $a059; opcode 1010
8c0a6: defc 000e                      adda.w  #$e, A7
8c0aa: 48e7 0f00                      movem.l D4-D7, -(A7)
8c0ae: 7006                           moveq   #$6, D0
8c0b0: 4267                           clr.w   -(A7)
8c0b2: 51c8 fffc                      dbra    D0, $8c0b0
8c0b6: 7809                           moveq   #$9, D4
8c0b8: 2a3c 0000 ffff                 move.l  #$ffff, D5
8c0be: 2e3c 0393 8700                 move.l  #$3938700, D7
8c0c4: 204f                           movea.l A7, A0
8c0c6: 40e7                           move    SR, -(A7)
8c0c8: 007c 0700                      ori     #$700, SR
8c0cc: 027c feff                      andi    #$feff, SR
8c0d0: a058                           dc.w    $a058; opcode 1010
8c0d2: 2c07                           move.l  D7, D6
8c0d4: 2007                           move.l  D7, D0
8c0d6: 4480                           neg.l   D0
8c0d8: a05a                           dc.w    $a05a; opcode 1010
8c0da: a059                           dc.w    $a059; opcode 1010
8c0dc: 46df                           move    (A7)+, SR
8c0de: dea8 000a                      add.l   ($a,A0), D7
8c0e2: 204f                           movea.l A7, A0
8c0e4: a058                           dc.w    $a058; opcode 1010
8c0e6: 40e7                           move    SR, -(A7)
8c0e8: 007c 0700                      ori     #$700, SR
8c0ec: 027c feff                      andi    #$feff, SR
8c0f0: 2006                           move.l  D6, D0
8c0f2: 4480                           neg.l   D0
8c0f4: a05a                           dc.w    $a05a; opcode 1010
8c0f6: 3038 0d02                      move.w  $d02.w, D0
8c0fa: 2278 01d8                      movea.l $1d8.w, A1
8c0fe: 2048                           movea.l A0, A0
8c100: 0811 0000                      btst    #$0, (A1)
8c104: 51c8 fffa                      dbra    D0, $8c100
8c108: 3038 0d02                      move.w  $d02.w, D0
8c10c: 0811 0000                      btst    #$0, (A1)
8c110: 51c8 fffa                      dbra    D0, $8c10c
8c114: 3038 0d02                      move.w  $d02.w, D0
8c118: 0811 0000                      btst    #$0, (A1)
8c11c: 51c8 fffa                      dbra    D0, $8c118
8c120: 3038 0d02                      move.w  $d02.w, D0
8c124: 0811 0000                      btst    #$0, (A1)
8c128: 51c8 fffa                      dbra    D0, $8c124
8c12c: a059                           dc.w    $a059; opcode 1010
8c12e: 46df                           move    (A7)+, SR
8c130: dca8 000a                      add.l   ($a,A0), D6
8c134: 9c87                           sub.l   D7, D6
8c136: ba86                           cmp.l   D6, D5
8c138: 6502                           bcs     $8c13c
8c13a: 2a06                           move.l  D6, D5
8c13c: 51cc ff80                      dbra    D4, $8c0be
8c140: 3238 0d02                      move.w  $d02.w, D1
8c144: c2fc 0fa0                      mulu.w  #$fa0, D1
8c148: 82c5                           divu.w  D5, D1
8c14a: 3001                           move.w  D1, D0
8c14c: defc 000e                      adda.w  #$e, A7
8c150: 4cdf 00f0                      movem.l (A7)+, D4-D7
8c154: 4e75                           rts
8c156: 0000 8200                      ori.b   #$0, D0
8c15a: 08fc                           dc.w    $08fc; ILLEGAL
8c15c: 0000 4064                      ori.b   #$64, D0
8c160: 6048                           bra     $8c1aa
8c162: 0000 0000                      ori.b   #$0, D0
8c166: 0008                           dc.w    $0008; ILLEGAL
8c168: 0201 8000                      andi.b  #$0, D1
8c16c: 0000 0732                      ori.b   #$32, D0
8c170: 2e30 2e31                      move.l  ($31,A0,D2.l*8), D7
8c174: 2020                           move.l  -(A0), D0
8c176: 3346 6c61                      move.w  D6, ($6c61,A1)
8c17a: 6773                           beq     $8c1ef
8c17c: 6869                           bvc     $8c1e7
8c17e: 7020                           moveq   #$20, D0
8c180: 7632                           moveq   #$32, D3
8c182: 2e30 2e31                      move.l  ($31,A0,D2.l*8), D7
8c186: 2020                           move.l  -(A0), D0
8c188: 3b20                           move.w  -(A0), -(A5)
8c18a: a920                           dc.w    $a920; opcode 1010
8c18c: 4170                           dc.w    $4170; ILLEGAL
8c18e: 706c                           moveq   #$6c, D0
8c190: 6520                           bcs     $8c1b2
8c192: 436f                           dc.w    $436f; ILLEGAL
8c194: 6d70                           blt     $8c206
8c196: 7574                           dc.w    $7574; ILLEGAL
8c198: 6572                           bcs     $8c20c
8c19a: 2c20                           move.l  -(A0), D6
8c19c: 496e                           dc.w    $496e; ILLEGAL
8c19e: 632e                           bls     $8c1ce
8c1a0: 2031 3939 302d 3139            move.l  ([$302d3139,A1,D3.l]), D0
8c1a8: 3931 48e7                      move.w  (-$19,A1,D4.l), -(A4)
8c1ac: fff8                           dc.w    $fff8; opcode 1111
8c1ae: 2848                           movea.l A0, A4
8c1b0: 7e01                           moveq   #$1, D7
8c1b2: 6100 00ec                      bsr     $8c2a0
8c1b6: 4a40                           tst.w   D0
8c1b8: 6600 009a                      bne     $8c254
8c1bc: 7e0a                           moveq   #$a, D7
8c1be: 204c                           movea.l A4, A0
8c1c0: a528                           dc.w    $a528; opcode 1010
8c1c2: 2f08                           move.l  A0, -(A7)
8c1c4: a992                           dc.w    $a992; opcode 1010
8c1c6: 4a78 0a60                      tst.w   $a60.w
8c1ca: 6600 0088                      bne     $8c254
8c1ce: 7e14                           moveq   #$14, D7
8c1d0: 203c 0000 025c                 move.l  #$25c, D0
8c1d6: a51e                           dc.w    $a51e; opcode 1010
8c1d8: 4a40                           tst.w   D0
8c1da: 6678                           bne     $8c254
8c1dc: 7e1e                           moveq   #$1e, D7
8c1de: 43fa 0082                      lea     ($8c262,PC), A1
8c1e2: 2288                           move.l  A0, (A1)
8c1e4: 2f08                           move.l  A0, -(A7)
8c1e6: 3e3c 0032                      move.w  #$32, D7
8c1ea: 6100 00f2                      bsr     $8c2de
8c1ee: 4a40                           tst.w   D0
8c1f0: 6664                           bne     $8c256
8c1f2: 3e3c 003c                      move.w  #$3c, D7
8c1f6: 2057                           movea.l (A7), A0
8c1f8: 43fa 03bc                      lea     ($8c5b6,PC), A1
8c1fc: 2149 00ec                      move.l  A1, ($ec,A0)
8c200: 2148 00f0                      move.l  A0, ($f0,A0)
8c204: 7017                           moveq   #$17, D0
8c206: 41e8 00e6                      lea     ($e6,A0), A0
8c20a: 2278 0b18                      movea.l $b18.w, A1
8c20e: 4ea9 0002                      jsr     ($2,A1)
8c212: 3e3c 0046                      move.w  #$46, D7
8c216: 6100 0156                      bsr     $8c36e
8c21a: 4a40                           tst.w   D0
8c21c: 670e                           beq     $8c22c
8c21e: 0c40 ff9f                      cmpi.w  #-$61, D0
8c222: 6708                           beq     $8c22c
8c224: 0c40 ff9e                      cmpi.w  #-$62, D0
8c228: 6702                           beq     $8c22c
8c22a: 602a                           bra     $8c256
8c22c: 2f3c 0000 a895                 move.l  #$a895, -(A7)
8c232: 6100 05ce                      bsr     $8c802
8c236: 4fef 0004                      lea     ($4,A7), A7
8c23a: 4a00                           tst.b   D0
8c23c: 670e                           beq     $8c24c
8c23e: 487a 0054                      pea     ($8c294,PC)
8c242: 3f3c 0003                      move.w  #$3, -(A7)
8c246: 3f3c 0003                      move.w  #$3, -(A7)
8c24a: a895                           dc.w    $a895; opcode 1010
8c24c: 205f                           movea.l (A7)+, A0
8c24e: 4268 000c                      clr.w   ($c,A0)
8c252: 6008                           bra     $8c25c
8c254: 6006                           bra     $8c25c
8c256: 205f                           movea.l (A7)+, A0
8c258: 3140 000c                      move.w  D0, ($c,A0)
8c25c: 4cdf 1fff                      movem.l (A7)+, D0-D7/A0-A4
8c260: 4e75                           rts
8c262: 0001 67d0                      ori.b   #$d0, D1
8c266: 206f 0004                      movea.l ($4,A7), A0
8c26a: 202f 0008                      move.l  ($8,A7), D0
8c26e: 0c80 666c 6167                 cmpi.l  #$666c6167, D0
8c274: 670a                           beq     $8c280
8c276: 4290                           clr.l   (A0)
8c278: 3f7c ea51 000c                 move.w  #$ea51, ($c,A7)
8c27e: 600e                           bra     $8c28e
8c280: 43fa ffe0                      lea     ($8c262,PC), A1
8c284: 2251                           movea.l (A1), A1
8c286: 20a9 0004                      move.l  ($4,A1), (A0)
8c28a: 426f 000c                      clr.w   ($c,A7)
8c28e: 205f                           movea.l (A7)+, A0
8c290: 508f                           addq.l  #8, A7
8c292: 4ed0                           jmp     (A0)
8c294: 2f3a ffcc                      move.l  ($8c262,PC), -(A7)
8c298: 6100 02cc                      bsr     $8c566
8c29c: 584f                           addq.w  #4, A7
8c29e: 4e75                           rts
8c2a0: 4e56 0000                      link    A6, #$0
8c2a4: 2f07                           move.l  D7, -(A7)
8c2a6: 2f3c 0000 a1ad                 move.l  #$a1ad, -(A7)
8c2ac: 4eba 0554                      jsr     ($8c802,PC)
8c2b0: 4a00                           tst.b   D0
8c2b2: 584f                           addq.w  #4, A7
8c2b4: 6606                           bne     $8c2bc
8c2b6: 303c ea84                      move.w  #$ea84, D0
8c2ba: 601a                           bra     $8c2d6
8c2bc: 558f                           subq.l  #2, A7
8c2be: 2f3c 666c 6167                 move.l  #$666c6167, -(A7)
8c2c4: 487a ffa0                      pea     ($8c266,PC)
8c2c8: 4eba 0604                      jsr     ($8c8ce,PC)
8c2cc: 3e1f                           move.w  (A7)+, D7
8c2ce: 6704                           beq     $8c2d4
8c2d0: 3007                           move.w  D7, D0
8c2d2: 6002                           bra     $8c2d6
8c2d4: 7000                           moveq   #$0, D0
8c2d6: 2e2e fffc                      move.l  (-$4,A6), D7
8c2da: 4e5e                           unlk    A6
8c2dc: 4e75                           rts
8c2de: 4e56 0000                      link    A6, #$0
8c2e2: 48e7 0108                      movem.l D7/A4, -(A7)
8c2e6: 286e 0008                      movea.l ($8,A6), A4
8c2ea: 28bc 666c 6167                 move.l  #$666c6167, (A4)
8c2f0: 426c 000c                      clr.w   ($c,A4)
8c2f4: 7000                           moveq   #$0, D0
8c2f6: 2940 0004                      move.l  D0, ($4,A4)
8c2fa: 486c 0004                      pea     ($4,A4)
8c2fe: 701f                           moveq   #$1f, D0
8c300: 2f00                           move.l  D0, -(A7)
8c302: a85e                           dc.w    $a85e; opcode 1010
8c304: 7000                           moveq   #$0, D0
8c306: 2940 0008                      move.l  D0, ($8,A4)
8c30a: 486c 0008                      pea     ($8,A4)
8c30e: 701f                           moveq   #$1f, D0
8c310: 2f00                           move.l  D0, -(A7)
8c312: a85e                           dc.w    $a85e; opcode 1010
8c314: 486c 00f4                      pea     ($f4,A4)
8c318: 4eba 00b2                      jsr     ($8c3cc,PC)
8c31c: 3e00                           move.w  D0, D7
8c31e: 584f                           addq.w  #4, A7
8c320: 660a                           bne     $8c32c
8c322: 486c 0008                      pea     ($8,A4)
8c326: 701e                           moveq   #$1e, D0
8c328: 2f00                           move.l  D0, -(A7)
8c32a: a85e                           dc.w    $a85e; opcode 1010
8c32c: 486c 0116                      pea     ($116,A4)
8c330: 4eba 00f2                      jsr     ($8c424,PC)
8c334: 3e00                           move.w  D0, D7
8c336: 584f                           addq.w  #4, A7
8c338: 6704                           beq     $8c33e
8c33a: 3007                           move.w  D7, D0
8c33c: 6026                           bra     $8c364
8c33e: 486c 0116                      pea     ($116,A4)
8c342: 486c 00f4                      pea     ($f4,A4)
8c346: 486c 000e                      pea     ($e,A4)
8c34a: 4eba 011a                      jsr     ($8c466,PC)
8c34e: 486c 015c                      pea     ($15c,A4)
8c352: 3f3c bf89                      move.w  #$bf89, -(A7)
8c356: 7001                           moveq   #$1, D0
8c358: 3f00                           move.w  D0, -(A7)
8c35a: 4eba 052c                      jsr     ($8c888,PC)
8c35e: 7000                           moveq   #$0, D0
8c360: 4fef 000c                      lea     ($c,A7), A7
8c364: 4cee 1080 fff8                 movem.l (-$8,A6), D7/A4
8c36a: 4e5e                           unlk    A6
8c36c: 4e75                           rts
8c36e: 4e56 0000                      link    A6, #$0
8c372: 2f0c                           move.l  A4, -(A7)
8c374: 286e 0008                      movea.l ($8,A6), A4
8c378: 558f                           subq.l  #2, A7
8c37a: 4eba 067a                      jsr     ($8c9f6,PC)
8c37e: 4a1f                           tst.b   (A7)+
8c380: 673a                           beq     $8c3bc
8c382: 558f                           subq.l  #2, A7
8c384: 486c 0008                      pea     ($8,A4)
8c388: 701e                           moveq   #$1e, D0
8c38a: 2f00                           move.l  D0, -(A7)
8c38c: a85d                           dc.w    $a85d; opcode 1010
8c38e: 4a1f                           tst.b   (A7)+
8c390: 672a                           beq     $8c3bc
8c392: 486c 000e                      pea     ($e,A4)
8c396: 486c 0138                      pea     ($138,A4)
8c39a: 4eba 0136                      jsr     ($8c4d2,PC)
8c39e: 4a40                           tst.w   D0
8c3a0: 504f                           addq.w  #8, A7
8c3a2: 6614                           bne     $8c3b8
8c3a4: 486c 0008                      pea     ($8,A4)
8c3a8: 701d                           moveq   #$1d, D0
8c3aa: 2f00                           move.l  D0, -(A7)
8c3ac: a85e                           dc.w    $a85e; opcode 1010
8c3ae: 486c 0004                      pea     ($4,A4)
8c3b2: 701e                           moveq   #$1e, D0
8c3b4: 2f00                           move.l  D0, -(A7)
8c3b6: a85e                           dc.w    $a85e; opcode 1010
8c3b8: 7000                           moveq   #$0, D0
8c3ba: 6008                           bra     $8c3c4
8c3bc: 558f                           subq.l  #2, A7
8c3be: 4eba 064e                      jsr     ($8ca0e,PC)
8c3c2: 301f                           move.w  (A7)+, D0
8c3c4: 286e fffc                      movea.l (-$4,A6), A4
8c3c8: 4e5e                           unlk    A6
8c3ca: 4e75                           rts
8c3cc: 4e56 0000                      link    A6, #$0
8c3d0: 48e7 0118                      movem.l D7/A3-A4, -(A7)
8c3d4: 266e 0008                      movea.l ($8,A6), A3
8c3d8: 4213                           clr.b   (A3)
8c3da: 598f                           subq.l  #4, A7
8c3dc: 2f3c 5354 5220                 move.l  #$53545220, -(A7)
8c3e2: 3f3c bfe3                      move.w  #$bfe3, -(A7)
8c3e6: a9a0                           dc.w    $a9a0; opcode 1010
8c3e8: 285f                           movea.l (A7)+, A4
8c3ea: 2054                           movea.l (A4), A0
8c3ec: 1e10                           move.b  (A0), D7
8c3ee: 200c                           move.l  A4, D0
8c3f0: 6724                           beq     $8c416
8c3f2: 7000                           moveq   #$0, D0
8c3f4: 1007                           move.b  D7, D0
8c3f6: 4a80                           tst.l   D0
8c3f8: 631c                           bls     $8c416
8c3fa: 7000                           moveq   #$0, D0
8c3fc: 1007                           move.b  D7, D0
8c3fe: 0c00 0020                      cmpi.b  #$20, D0
8c402: 6212                           bhi     $8c416
8c404: 2054                           movea.l (A4), A0
8c406: 224b                           movea.l A3, A1
8c408: 7000                           moveq   #$0, D0
8c40a: 1007                           move.b  D7, D0
8c40c: 5240                           addq.w  #1, D0
8c40e: 48c0                           ext.l   D0
8c410: a02e                           dc.w    $a02e; opcode 1010
8c412: 7000                           moveq   #$0, D0
8c414: 6004                           bra     $8c41a
8c416: 303c ff40                      move.w  #$ff40, D0
8c41a: 4cee 1880 fff4                 movem.l (-$c,A6), D7/A3-A4
8c420: 4e5e                           unlk    A6
8c422: 4e75                           rts
8c424: 4e56 0000                      link    A6, #$0
8c428: 48e7 0108                      movem.l D7/A4, -(A7)
8c42c: 286e 0008                      movea.l ($8,A6), A4
8c430: 4214                           clr.b   (A4)
8c432: 2f0c                           move.l  A4, -(A7)
8c434: 3f3c bf89                      move.w  #$bf89, -(A7)
8c438: 7002                           moveq   #$2, D0
8c43a: 3f00                           move.w  D0, -(A7)
8c43c: 4eba 044a                      jsr     ($8c888,PC)
8c440: 1e14                           move.b  (A4), D7
8c442: 7000                           moveq   #$0, D0
8c444: 1007                           move.b  D7, D0
8c446: 4a80                           tst.l   D0
8c448: 630e                           bls     $8c458
8c44a: 7000                           moveq   #$0, D0
8c44c: 1007                           move.b  D7, D0
8c44e: 0c00 0020                      cmpi.b  #$20, D0
8c452: 6204                           bhi     $8c458
8c454: 7000                           moveq   #$0, D0
8c456: 6004                           bra     $8c45c
8c458: 303c ff40                      move.w  #$ff40, D0
8c45c: 4cee 1080 fff8                 movem.l (-$8,A6), D7/A4
8c462: 4e5e                           unlk    A6
8c464: 4e75                           rts
8c466: 4e56 0000                      link    A6, #$0
8c46a: 48e7 0038                      movem.l A2-A4, -(A7)
8c46e: 266e 0008                      movea.l ($8,A6), A3
8c472: 426b 0004                      clr.w   ($4,A3)
8c476: 422b 0006                      clr.b   ($6,A3)
8c47a: 177c 0004 0007                 move.b  #$4, ($7,A3)
8c480: 422b 0008                      clr.b   ($8,A3)
8c484: 49eb 0009                      lea     ($9,A3), A4
8c488: 206e 000c                      movea.l ($c,A6), A0
8c48c: 224c                           movea.l A4, A1
8c48e: 2448                           movea.l A0, A2
8c490: 7000                           moveq   #$0, D0
8c492: 1012                           move.b  (A2), D0
8c494: 5240                           addq.w  #1, D0
8c496: 48c0                           ext.l   D0
8c498: a02e                           dc.w    $a02e; opcode 1010
8c49a: 7000                           moveq   #$0, D0
8c49c: 1014                           move.b  (A4), D0
8c49e: 5240                           addq.w  #1, D0
8c4a0: d8c0                           adda.w  D0, A4
8c4a2: 206e 0010                      movea.l ($10,A6), A0
8c4a6: 224c                           movea.l A4, A1
8c4a8: 2448                           movea.l A0, A2
8c4aa: 7000                           moveq   #$0, D0
8c4ac: 1012                           move.b  (A2), D0
8c4ae: 5240                           addq.w  #1, D0
8c4b0: 48c0                           ext.l   D0
8c4b2: a02e                           dc.w    $a02e; opcode 1010
8c4b4: 206e 0010                      movea.l ($10,A6), A0
8c4b8: 7000                           moveq   #$0, D0
8c4ba: 1010                           move.b  (A0), D0
8c4bc: 5240                           addq.w  #1, D0
8c4be: d8c0                           adda.w  D0, A4
8c4c0: 18fc 0001                      move.b  #$1, (A4)+
8c4c4: 18fc 002a                      move.b  #$2a, (A4)+
8c4c8: 4cee 1c00 fff4                 movem.l (-$c,A6), A2-A4
8c4ce: 4e5e                           unlk    A6
8c4d0: 4e75                           rts
8c4d2: 4e56 0000                      link    A6, #$0
8c4d6: 2f0c                           move.l  A4, -(A7)
8c4d8: 286e 0008                      movea.l ($8,A6), A4
8c4dc: 7000                           moveq   #$0, D0
8c4de: 2940 000c                      move.l  D0, ($c,A4)
8c4e2: 397c 0001 0010                 move.w  #$1, ($10,A4)
8c4e8: 397c fff6 0018                 move.w  #$fff6, ($18,A4)
8c4ee: 397c 00fd 001a                 move.w  #$fd, ($1a,A4)
8c4f4: 197c 0004 001c                 move.b  #$4, ($1c,A4)
8c4fa: 197c 0003 001d                 move.b  #$3, ($1d,A4)
8c500: 296e 000c 001e                 move.l  ($c,A6), ($1e,A4)
8c506: 197c 0001 0022                 move.b  #$1, ($22,A4)
8c50c: 558f                           subq.l  #2, A7
8c50e: 2f0c                           move.l  A4, -(A7)
8c510: 7000                           moveq   #$0, D0
8c512: 1f00                           move.b  D0, -(A7)
8c514: 4eba 0360                      jsr     ($8c876,PC)
8c518: 301f                           move.w  (A7)+, D0
8c51a: 286e fffc                      movea.l (-$4,A6), A4
8c51e: 4e5e                           unlk    A6
8c520: 4e75                           rts
8c522: 4e56 0000                      link    A6, #$0
8c526: 2f0c                           move.l  A4, -(A7)
8c528: 286e 0008                      movea.l ($8,A6), A4
8c52c: 7000                           moveq   #$0, D0
8c52e: 2940 000c                      move.l  D0, ($c,A4)
8c532: 397c 0001 0010                 move.w  #$1, ($10,A4)
8c538: 397c fff6 0018                 move.w  #$fff6, ($18,A4)
8c53e: 397c 00fc 001a                 move.w  #$fc, ($1a,A4)
8c544: 206e 000c                      movea.l ($c,A6), A0
8c548: 41e8 0009                      lea     ($9,A0), A0
8c54c: 2948 001e                      move.l  A0, ($1e,A4)
8c550: 558f                           subq.l  #2, A7
8c552: 2f0c                           move.l  A4, -(A7)
8c554: 7000                           moveq   #$0, D0
8c556: 1f00                           move.b  D0, -(A7)
8c558: 4eba 031c                      jsr     ($8c876,PC)
8c55c: 301f                           move.w  (A7)+, D0
8c55e: 286e fffc                      movea.l (-$4,A6), A4
8c562: 4e5e                           unlk    A6
8c564: 4e75                           rts
8c566: 4e56 0000                      link    A6, #$0
8c56a: 2f0c                           move.l  A4, -(A7)
8c56c: 286e 0008                      movea.l ($8,A6), A4
8c570: 558f                           subq.l  #2, A7
8c572: 486c 0008                      pea     ($8,A4)
8c576: 701e                           moveq   #$1e, D0
8c578: 2f00                           move.l  D0, -(A7)
8c57a: a85d                           dc.w    $a85d; opcode 1010
8c57c: 4a1f                           tst.b   (A7)+
8c57e: 672c                           beq     $8c5ac
8c580: 558f                           subq.l  #2, A7
8c582: 486c 0008                      pea     ($8,A4)
8c586: 701f                           moveq   #$1f, D0
8c588: 2f00                           move.l  D0, -(A7)
8c58a: a85d                           dc.w    $a85d; opcode 1010
8c58c: 4a1f                           tst.b   (A7)+
8c58e: 6708                           beq     $8c598
8c590: 41ec 000e                      lea     ($e,A4), A0
8c594: 2008                           move.l  A0, D0
8c596: 6006                           bra     $8c59e
8c598: 41ec 007a                      lea     ($7a,A4), A0
8c59c: 2008                           move.l  A0, D0
8c59e: 2f00                           move.l  D0, -(A7)
8c5a0: 486c 0138                      pea     ($138,A4)
8c5a4: 4eba ff7c                      jsr     ($8c522,PC)
8c5a8: 504f                           addq.w  #8, A7
8c5aa: 6002                           bra     $8c5ae
8c5ac: 7000                           moveq   #$0, D0
8c5ae: 286e fffc                      movea.l (-$4,A6), A4
8c5b2: 4e5e                           unlk    A6
8c5b4: 4e75                           rts
8c5b6: 4e56 fffc                      link    A6, #-$4
8c5ba: 48e7 0318                      movem.l D6-D7/A3-A4, -(A7)
8c5be: 206e 000c                      movea.l ($c,A6), A0
8c5c2: 2868 000a                      movea.l ($a,A0), A4
8c5c6: 558f                           subq.l  #2, A7
8c5c8: 486c 0008                      pea     ($8,A4)
8c5cc: 701f                           moveq   #$1f, D0
8c5ce: 2f00                           move.l  D0, -(A7)
8c5d0: a85d                           dc.w    $a85d; opcode 1010
8c5d2: 1e1f                           move.b  (A7)+, D7
8c5d4: 670e                           beq     $8c5e4
8c5d6: 41ec 000e                      lea     ($e,A4), A0
8c5da: 2d48 fffc                      move.l  A0, (-$4,A6)
8c5de: 47ec 007a                      lea     ($7a,A4), A3
8c5e2: 600c                           bra     $8c5f0
8c5e4: 41ec 007a                      lea     ($7a,A4), A0
8c5e8: 2d48 fffc                      move.l  A0, (-$4,A6)
8c5ec: 47ec 000e                      lea     ($e,A4), A3
8c5f0: 202e 0008                      move.l  ($8,A6), D0
8c5f4: 6b00 01b8                      bmi     $8c7ae
8c5f8: 0c80 0000 0008                 cmpi.l  #$8, D0
8c5fe: 6e00 01ae                      bgt     $8c7ae
8c602: d080                           add.l   D0, D0
8c604: 303b 0806                      move.w  ($6,PC,D0.l), D0
8c608: 4efb 0000                      jmp     (PC,D0.w)
8c60c: 0014 01a4                      ori.b   #$a4, (A4)
8c610: 0094 01a4 01a4                 ori.l   #$1a401a4, (A4)
8c616: 01a4                           bclr    D0, -(A4)
8c618: 0104                           btst    D0, D4
8c61a: 00b6 017e 486c 00f4            ori.l   #$17e486c, (-$c,A6,D0.w)
8c622: 4eba fda8                      jsr     ($8c3cc,PC)
8c626: 4a40                           tst.w   D0
8c628: 584f                           addq.w  #4, A7
8c62a: 6600 0182                      bne     $8c7ae
8c62e: 486c 0008                      pea     ($8,A4)
8c632: 701e                           moveq   #$1e, D0
8c634: 2f00                           move.l  D0, -(A7)
8c636: a85e                           dc.w    $a85e; opcode 1010
8c638: 486c 0116                      pea     ($116,A4)
8c63c: 486c 00f4                      pea     ($f4,A4)
8c640: 2f2e fffc                      move.l  (-$4,A6), -(A7)
8c644: 4eba fe20                      jsr     ($8c466,PC)
8c648: 486c 0004                      pea     ($4,A4)
8c64c: 701f                           moveq   #$1f, D0
8c64e: 2f00                           move.l  D0, -(A7)
8c650: a85e                           dc.w    $a85e; opcode 1010
8c652: 2f2e fffc                      move.l  (-$4,A6), -(A7)
8c656: 486c 0138                      pea     ($138,A4)
8c65a: 4eba fe76                      jsr     ($8c4d2,PC)
8c65e: 4a40                           tst.w   D0
8c660: 4fef 0014                      lea     ($14,A7), A7
8c664: 662a                           bne     $8c690
8c666: 486c 0004                      pea     ($4,A4)
8c66a: 701e                           moveq   #$1e, D0
8c66c: 2f00                           move.l  D0, -(A7)
8c66e: a85e                           dc.w    $a85e; opcode 1010
8c670: 4a07                           tst.b   D7
8c672: 670e                           beq     $8c682
8c674: 486c 0008                      pea     ($8,A4)
8c678: 701d                           moveq   #$1d, D0
8c67a: 2f00                           move.l  D0, -(A7)
8c67c: a85e                           dc.w    $a85e; opcode 1010
8c67e: 6000 012e                      bra     $8c7ae
8c682: 486c 0008                      pea     ($8,A4)
8c686: 701c                           moveq   #$1c, D0
8c688: 2f00                           move.l  D0, -(A7)
8c68a: a85e                           dc.w    $a85e; opcode 1010
8c68c: 6000 0120                      bra     $8c7ae
8c690: 486c 0004                      pea     ($4,A4)
8c694: 701e                           moveq   #$1e, D0
8c696: 2f00                           move.l  D0, -(A7)
8c698: a85f                           dc.w    $a85f; opcode 1010
8c69a: 6000 0112                      bra     $8c7ae
8c69e: 486c 0004                      pea     ($4,A4)
8c6a2: 701e                           moveq   #$1e, D0
8c6a4: 2f00                           move.l  D0, -(A7)
8c6a6: a85f                           dc.w    $a85f; opcode 1010
8c6a8: 486c 0008                      pea     ($8,A4)
8c6ac: 701d                           moveq   #$1d, D0
8c6ae: 2f00                           move.l  D0, -(A7)
8c6b0: a85f                           dc.w    $a85f; opcode 1010
8c6b2: 486c 0008                      pea     ($8,A4)
8c6b6: 701c                           moveq   #$1c, D0
8c6b8: 2f00                           move.l  D0, -(A7)
8c6ba: a85f                           dc.w    $a85f; opcode 1010
8c6bc: 6000 00f0                      bra     $8c7ae
8c6c0: 486c 0116                      pea     ($116,A4)
8c6c4: 2f2e 0010                      move.l  ($10,A6), -(A7)
8c6c8: 2f0b                           move.l  A3, -(A7)
8c6ca: 4eba fd9a                      jsr     ($8c466,PC)
8c6ce: 2f0b                           move.l  A3, -(A7)
8c6d0: 486c 0138                      pea     ($138,A4)
8c6d4: 4eba fdfc                      jsr     ($8c4d2,PC)
8c6d8: 3c00                           move.w  D0, D6
8c6da: 4fef 0014                      lea     ($14,A7), A7
8c6de: 661c                           bne     $8c6fc
8c6e0: 4a07                           tst.b   D7
8c6e2: 670c                           beq     $8c6f0
8c6e4: 486c 0008                      pea     ($8,A4)
8c6e8: 701c                           moveq   #$1c, D0
8c6ea: 2f00                           move.l  D0, -(A7)
8c6ec: a85e                           dc.w    $a85e; opcode 1010
8c6ee: 6018                           bra     $8c708
8c6f0: 486c 0008                      pea     ($8,A4)
8c6f4: 701d                           moveq   #$1d, D0
8c6f6: 2f00                           move.l  D0, -(A7)
8c6f8: a85e                           dc.w    $a85e; opcode 1010
8c6fa: 600c                           bra     $8c708
8c6fc: 41ec 015c                      lea     ($15c,A4), A0
8c700: 226e 0010                      movea.l ($10,A6), A1
8c704: 2348 0022                      move.l  A0, ($22,A1)
8c708: 3006                           move.w  D6, D0
8c70a: 6000 00a4                      bra     $8c7b0
8c70e: 558f                           subq.l  #2, A7
8c710: 486c 0008                      pea     ($8,A4)
8c714: 701e                           moveq   #$1e, D0
8c716: 2f00                           move.l  D0, -(A7)
8c718: a85d                           dc.w    $a85d; opcode 1010
8c71a: 4a1f                           tst.b   (A7)+
8c71c: 6710                           beq     $8c72e
8c71e: 2f2e fffc                      move.l  (-$4,A6), -(A7)
8c722: 486c 0138                      pea     ($138,A4)
8c726: 4eba fdfa                      jsr     ($8c522,PC)
8c72a: 3c00                           move.w  D0, D6
8c72c: 504f                           addq.w  #8, A7
8c72e: 4a07                           tst.b   D7
8c730: 6716                           beq     $8c748
8c732: 486c 0008                      pea     ($8,A4)
8c736: 701d                           moveq   #$1d, D0
8c738: 2f00                           move.l  D0, -(A7)
8c73a: a85f                           dc.w    $a85f; opcode 1010
8c73c: 486c 0008                      pea     ($8,A4)
8c740: 701f                           moveq   #$1f, D0
8c742: 2f00                           move.l  D0, -(A7)
8c744: a85f                           dc.w    $a85f; opcode 1010
8c746: 6014                           bra     $8c75c
8c748: 486c 0008                      pea     ($8,A4)
8c74c: 701c                           moveq   #$1c, D0
8c74e: 2f00                           move.l  D0, -(A7)
8c750: a85f                           dc.w    $a85f; opcode 1010
8c752: 486c 0008                      pea     ($8,A4)
8c756: 701f                           moveq   #$1f, D0
8c758: 2f00                           move.l  D0, -(A7)
8c75a: a85e                           dc.w    $a85e; opcode 1010
8c75c: 1c2b 0009                      move.b  ($9,A3), D6
8c760: 41eb 0009                      lea     ($9,A3), A0
8c764: 43ec 00f4                      lea     ($f4,A4), A1
8c768: 7000                           moveq   #$0, D0
8c76a: 1006                           move.b  D6, D0
8c76c: 5240                           addq.w  #1, D0
8c76e: 48c0                           ext.l   D0
8c770: a02e                           dc.w    $a02e; opcode 1010
8c772: 486c 0008                      pea     ($8,A4)
8c776: 701e                           moveq   #$1e, D0
8c778: 2f00                           move.l  D0, -(A7)
8c77a: a85e                           dc.w    $a85e; opcode 1010
8c77c: 486c 0004                      pea     ($4,A4)
8c780: 701e                           moveq   #$1e, D0
8c782: 2f00                           move.l  D0, -(A7)
8c784: a85e                           dc.w    $a85e; opcode 1010
8c786: 6026                           bra     $8c7ae
8c788: 2f0b                           move.l  A3, -(A7)
8c78a: 486c 0138                      pea     ($138,A4)
8c78e: 4eba fd92                      jsr     ($8c522,PC)
8c792: 4a07                           tst.b   D7
8c794: 504f                           addq.w  #8, A7
8c796: 670c                           beq     $8c7a4
8c798: 486c 0008                      pea     ($8,A4)
8c79c: 701c                           moveq   #$1c, D0
8c79e: 2f00                           move.l  D0, -(A7)
8c7a0: a85f                           dc.w    $a85f; opcode 1010
8c7a2: 600a                           bra     $8c7ae
8c7a4: 486c 0008                      pea     ($8,A4)
8c7a8: 701d                           moveq   #$1d, D0
8c7aa: 2f00                           move.l  D0, -(A7)
8c7ac: a85f                           dc.w    $a85f; opcode 1010
8c7ae: 7000                           moveq   #$0, D0
8c7b0: 4cee 18c0 ffec                 movem.l (-$14,A6), D6-D7/A3-A4
8c7b6: 4e5e                           unlk    A6
8c7b8: 4e75                           rts
8c7ba: 4e56 0000                      link    A6, #$0
8c7be: 598f                           subq.l  #4, A7
8c7c0: 3f3c a86e                      move.w  #$a86e, -(A7)
8c7c4: 7001                           moveq   #$1, D0
8c7c6: 1f00                           move.b  D0, -(A7)
8c7c8: 4eba 0098                      jsr     ($8c862,PC)
8c7cc: 598f                           subq.l  #4, A7
8c7ce: 3f3c aa6e                      move.w  #$aa6e, -(A7)
8c7d2: 7001                           moveq   #$1, D0
8c7d4: 1f00                           move.b  D0, -(A7)
8c7d6: 4eba 008a                      jsr     ($8c862,PC)
8c7da: 201f                           move.l  (A7)+, D0
8c7dc: b09f                           cmp.l   (A7)+, D0
8c7de: 6606                           bne     $8c7e6
8c7e0: 303c 0200                      move.w  #$200, D0
8c7e4: 6004                           bra     $8c7ea
8c7e6: 303c 0400                      move.w  #$400, D0
8c7ea: 4e5e                           unlk    A6
8c7ec: 4e75                           rts
8c7ee: 4e56 0000                      link    A6, #$0
8c7f2: 323c 0800                      move.w  #$800, D1
8c7f6: c26e 000a                      and.w   ($a,A6), D1
8c7fa: 56c0                           sne     D0
8c7fc: 4400                           neg.b   D0
8c7fe: 4e5e                           unlk    A6
8c800: 4e75                           rts
8c802: 4e56 0000                      link    A6, #$0
8c806: 48e7 0300                      movem.l D6-D7, -(A7)
8c80a: 3e2e 000a                      move.w  ($a,A6), D7
8c80e: 48c7                           ext.l   D7
8c810: 2f07                           move.l  D7, -(A7)
8c812: 4eba ffda                      jsr     ($8c7ee,PC)
8c816: 1c00                           move.b  D0, D6
8c818: 7000                           moveq   #$0, D0
8c81a: 1006                           move.b  D6, D0
8c81c: 0c40 0001                      cmpi.w  #$1, D0
8c820: 584f                           addq.w  #4, A7
8c822: 6614                           bne     $8c838
8c824: 303c 07ff                      move.w  #$7ff, D0
8c828: c047                           and.w   D7, D0
8c82a: 3e00                           move.w  D0, D7
8c82c: 4eba ff8c                      jsr     ($8c7ba,PC)
8c830: b047                           cmp.w   D7, D0
8c832: 6e04                           bgt     $8c838
8c834: 3e3c a89f                      move.w  #$a89f, D7
8c838: 598f                           subq.l  #4, A7
8c83a: 3f07                           move.w  D7, -(A7)
8c83c: 1f06                           move.b  D6, -(A7)
8c83e: 4eba 0022                      jsr     ($8c862,PC)
8c842: 598f                           subq.l  #4, A7
8c844: 3f3c a89f                      move.w  #$a89f, -(A7)
8c848: 7001                           moveq   #$1, D0
8c84a: 1f00                           move.b  D0, -(A7)
8c84c: 4eba 0014                      jsr     ($8c862,PC)
8c850: 201f                           move.l  (A7)+, D0
8c852: b09f                           cmp.l   (A7)+, D0
8c854: 56c0                           sne     D0
8c856: 4400                           neg.b   D0
8c858: 4cee 00c0 fff8                 movem.l (-$8,A6), D6-D7
8c85e: 4e5e                           unlk    A6
8c860: 4e75                           rts
8c862: 225f                           movea.l (A7)+, A1
8c864: 121f                           move.b  (A7)+, D1
8c866: 301f                           move.w  (A7)+, D0
8c868: 4a01                           tst.b   D1
8c86a: 6704                           beq     $8c870
8c86c: a746                           dc.w    $a746; opcode 1010
8c86e: 6002                           bra     $8c872
8c870: a346                           dc.w    $a346; opcode 1010
8c872: 2e88                           move.l  A0, (A7)
8c874: 4ed1                           jmp     (A1)
8c876: 225f                           movea.l (A7)+, A1
8c878: 101f                           move.b  (A7)+, D0
8c87a: 205f                           movea.l (A7)+, A0
8c87c: 6604                           bne     $8c882
8c87e: a004                           dc.w    $a004; opcode 1010
8c880: 6002                           bra     $8c884
8c882: a404                           dc.w    $a404; opcode 1010
8c884: 3e80                           move.w  D0, (A7)
8c886: 4ed1                           jmp     (A1)
8c888: 4e56 0000                      link    A6, #$0
8c88c: 594f                           subq.w  #4, A7
8c88e: 2f3c 5354 5223                 move.l  #$53545223, -(A7)
8c894: 3f2e 000a                      move.w  ($a,A6), -(A7)
8c898: a9a0                           dc.w    $a9a0; opcode 1010
8c89a: 226e 000c                      movea.l ($c,A6), A1
8c89e: 4211                           clr.b   (A1)
8c8a0: 201f                           move.l  (A7)+, D0
8c8a2: 6722                           beq     $8c8c6
8c8a4: 2040                           movea.l D0, A0
8c8a6: 2050                           movea.l (A0), A0
8c8a8: 3018                           move.w  (A0)+, D0
8c8aa: 322e 0008                      move.w  ($8,A6), D1
8c8ae: 6716                           beq     $8c8c6
8c8b0: b240                           cmp.w   D0, D1
8c8b2: 6212                           bhi     $8c8c6
8c8b4: 7000                           moveq   #$0, D0
8c8b6: 5341                           subq.w  #1, D1
8c8b8: 6706                           beq     $8c8c0
8c8ba: 1018                           move.b  (A0)+, D0
8c8bc: d1c0                           adda.l  D0, A0
8c8be: 60f6                           bra     $8c8b6
8c8c0: 1010                           move.b  (A0), D0
8c8c2: 5240                           addq.w  #1, D0
8c8c4: a02e                           dc.w    $a02e; opcode 1010
8c8c6: 4e5e                           unlk    A6
8c8c8: 205f                           movea.l (A7)+, A0
8c8ca: 508f                           addq.l  #8, A7
8c8cc: 4ed0                           jmp     (A0)
8c8ce: 4e56 0000                      link    A6, #$0
8c8d2: 203c 0000 a89f                 move.l  #$a89f, D0
8c8d8: a746                           dc.w    $a746; opcode 1010
8c8da: 2f08                           move.l  A0, -(A7)
8c8dc: 203c 0000 a0ad                 move.l  #$a0ad, D0
8c8e2: a346                           dc.w    $a346; opcode 1010
8c8e4: b1df                           cmpa.l  (A7)+, A0
8c8e6: 6710                           beq     $8c8f8
8c8e8: 202e 000c                      move.l  ($c,A6), D0
8c8ec: 206e 0008                      movea.l ($8,A6), A0
8c8f0: a3ad                           dc.w    $a3ad; opcode 1010
8c8f2: 3d40 0010                      move.w  D0, ($10,A6)
8c8f6: 6006                           bra     $8c8fe
8c8f8: 3d7c fffc 0010                 move.w  #$fffc, ($10,A6)
8c8fe: 4e5e                           unlk    A6
8c900: 205f                           movea.l (A7)+, A0
8c902: 508f                           addq.l  #8, A7
8c904: 4ed0                           jmp     (A0)
8c906: 0000 0000                      ori.b   #$0, D0
8c90a: 0000 0000                      ori.b   #$0, D0
8c90e: 0000 0000                      ori.b   #$0, D0
8c912: 0000 0000                      ori.b   #$0, D0
8c916: 0000 0000                      ori.b   #$0, D0
8c91a: 0000 0000                      ori.b   #$0, D0
8c91e: 0000 0000                      ori.b   #$0, D0
8c922: 0000 0000                      ori.b   #$0, D0
8c926: 0000 0000                      ori.b   #$0, D0
8c92a: 0000 0000                      ori.b   #$0, D0
8c92e: 0000 0000                      ori.b   #$0, D0
8c932: 0000 0000                      ori.b   #$0, D0
8c936: 0000 0000                      ori.b   #$0, D0
8c93a: 0000 0000                      ori.b   #$0, D0
8c93e: 0000 0000                      ori.b   #$0, D0
8c942: 0000 0000                      ori.b   #$0, D0
8c946: 0000 0000                      ori.b   #$0, D0
8c94a: 0000 0000                      ori.b   #$0, D0
8c94e: 0000 0000                      ori.b   #$0, D0
8c952: 0000 0000                      ori.b   #$0, D0
8c956: 0000 0000                      ori.b   #$0, D0
8c95a: 0000 0000                      ori.b   #$0, D0
8c95e: 0000 0000                      ori.b   #$0, D0
8c962: 0000 0000                      ori.b   #$0, D0
8c966: 0000 0000                      ori.b   #$0, D0
8c96a: 0000 0000                      ori.b   #$0, D0
8c96e: 0000 0000                      ori.b   #$0, D0
8c972: 0000 0000                      ori.b   #$0, D0
8c976: 0000 0000                      ori.b   #$0, D0
8c97a: 0000 0000                      ori.b   #$0, D0
8c97e: 0000 0000                      ori.b   #$0, D0
8c982: 0000 042e                      ori.b   #$2e, D0
8c986: 4d50                           dc.w    $4d50; ILLEGAL
8c988: 5020                           addq.b  #8, -(A0)
8c98a: 042e 4154 5020                 subi.b  #$54, ($5020,A6)
8c990: 0000 0000                      ori.b   #$0, D0
8c994: 0000 0000                      ori.b   #$0, D0
8c998: 0000 0000                      ori.b   #$0, D0
8c99c: 0000 0000                      ori.b   #$0, D0
8c9a0: 0000 0000                      ori.b   #$0, D0
8c9a4: 0000 0000                      ori.b   #$0, D0
8c9a8: 0000 0000                      ori.b   #$0, D0
8c9ac: 0000 0000                      ori.b   #$0, D0
8c9b0: 0000 0000                      ori.b   #$0, D0
8c9b4: 0000 0000                      ori.b   #$0, D0
8c9b8: 0000 0000                      ori.b   #$0, D0
8c9bc: 0000 0000                      ori.b   #$0, D0
8c9c0: 0000 0000                      ori.b   #$0, D0
8c9c4: 0000 0000                      ori.b   #$0, D0
8c9c8: 0000 0000                      ori.b   #$0, D0
8c9cc: 0000 0000                      ori.b   #$0, D0
8c9d0: 0000 0000                      ori.b   #$0, D0
8c9d4: 0000 0000                      ori.b   #$0, D0
8c9d8: 0000 0000                      ori.b   #$0, D0
8c9dc: 0000 0000                      ori.b   #$0, D0
8c9e0: 0000 0000                      ori.b   #$0, D0
8c9e4: 0000 0000                      ori.b   #$0, D0
8c9e8: 0000 0000                      ori.b   #$0, D0
8c9ec: 0000 0000                      ori.b   #$0, D0
8c9f0: 0000 0000                      ori.b   #$0, D0
8c9f4: 0000 7200                      ori.b   #$0, D0
8c9f8: 1038 0291                      move.b  $291.w, D0
8c9fc: 6b0a                           bmi     $8ca08
8c9fe: 0200 000f                      andi.b  #$f, D0
8ca02: 5300                           subq.b  #1, D0
8ca04: 6602                           bne     $8ca08
8ca06: 7201                           moveq   #$1, D1
8ca08: 1f41 0004                      move.b  D1, ($4,A7)
8ca0c: 4e75                           rts
8ca0e: 4267                           clr.w   -(A7)
8ca10: 4eba ffe4                      jsr     ($8c9f6,PC)
8ca14: 4240                           clr.w   D0
8ca16: 4a1f                           tst.b   (A7)+
8ca18: 6632                           bne     $8ca4c
8ca1a: 1238 0291                      move.b  $291.w, D1
8ca1e: 6b04                           bmi     $8ca24
8ca20: 709f                           moveq   #-$61, D0
8ca22: 6028                           bra     $8ca4c
8ca24: 1038 01fb                      move.b  $1fb.w, D0
8ca28: 0200 000f                      andi.b  #$f, D0
8ca2c: 5300                           subq.b  #1, D0
8ca2e: 6f04                           ble     $8ca34
8ca30: 709e                           moveq   #-$62, D0
8ca32: 6018                           bra     $8ca4c
8ca34: 9efc 0032                      suba.w  #$32, A7
8ca38: 204f                           movea.l A7, A0
8ca3a: 43fa ff48                      lea     ($8c984,PC), A1
8ca3e: 2149 0012                      move.l  A1, ($12,A0)
8ca42: 4228 001b                      clr.b   ($1b,A0)
8ca46: a000                           dc.w    $a000; opcode 1010
8ca48: 4fef 0032                      lea     ($32,A7), A7
8ca4c: 3f40 0004                      move.w  D0, ($4,A7)
8ca50: 4e75                           rts
8ca52: ffde                           dc.w    $ffde; opcode 1111
8ca54: 4000                           negx.b  D0
8ca56: 0a38 0000 2000                 eori.b  #$0, $2000.w
8ca5c: 0000 0000                      ori.b   #$0, D0
8ca60: 0000 0000                      ori.b   #$0, D0
8ca64: 0000 0000                      ori.b   #$0, D0
8ca68: 0000 0000                      ori.b   #$0, D0
8ca6c: 0000 0000                      ori.b   #$0, D0
8ca70: 0000 0000                      ori.b   #$0, D0
8ca74: 0000 0000                      ori.b   #$0, D0
8ca78: 2300                           move.l  D0, -(A1)
8ca7a: 0000 0000                      ori.b   #$0, D0
8ca7e: 080e                           dc.w    $080e; ILLEGAL
8ca80: ffff                           dc.w    $ffff; opcode 1111
8ca82: ffff                           dc.w    $ffff; opcode 1111
8ca84: ff80                           dc.w    $ff80; opcode 1111
8ca86: 0201 0000                      andi.b  #$0, D1
8ca8a: 0000 0000                      ori.b   #$0, D0
8ca8e: 0000 0000                      ori.b   #$0, D0
8ca92: 0000 0000                      ori.b   #$0, D0
8ca96: 0000 0000                      ori.b   #$0, D0
8ca9a: 0000 8007                      ori.b   #$7, D0
8ca9e: 4612                           not.b   (A2)
8caa0: 8007                           or.b    D7, D0
8caa2: 2292                           move.l  (A2), (A1)
8caa4: 8007                           or.b    D7, D0
8caa6: 2318                           move.l  (A0)+, -(A1)
8caa8: 0000 0000                      ori.b   #$0, D0
8caac: 0000 0000                      ori.b   #$0, D0
8cab0: 0000 0000                      ori.b   #$0, D0
8cab4: 0000 0000                      ori.b   #$0, D0
8cab8: 0000 0000                      ori.b   #$0, D0
8cabc: 0000 0000                      ori.b   #$0, D0
8cac0: 0000 0000                      ori.b   #$0, D0
8cac4: 0000 0000                      ori.b   #$0, D0
8cac8: 0000 0000                      ori.b   #$0, D0
8cacc: 0000 0000                      ori.b   #$0, D0
8cad0: 0000 0000                      ori.b   #$0, D0
8cad4: 0000 0000                      ori.b   #$0, D0
8cad8: 0000 0000                      ori.b   #$0, D0
8cadc: 0000 0000                      ori.b   #$0, D0
8cae0: 0000 0000                      ori.b   #$0, D0
8cae4: 0000 0000                      ori.b   #$0, D0
8cae8: 0000 0000                      ori.b   #$0, D0
8caec: 0000 0000                      ori.b   #$0, D0
8caf0: 0000 0000                      ori.b   #$0, D0
8caf4: 0000 0000                      ori.b   #$0, D0
8caf8: 0000 0000                      ori.b   #$0, D0
8cafc: 0000 0000                      ori.b   #$0, D0
8cb00: 0000 0000                      ori.b   #$0, D0
8cb04: 0000 0000                      ori.b   #$0, D0
8cb08: 0000 0000                      ori.b   #$0, D0
8cb0c: 0000 0000                      ori.b   #$0, D0
8cb10: 0000 0000                      ori.b   #$0, D0
8cb14: 0000 0000                      ori.b   #$0, D0
8cb18: 0000 0000                      ori.b   #$0, D0
8cb1c: 0000 0000                      ori.b   #$0, D0
8cb20: 0000 0000                      ori.b   #$0, D0
8cb24: 0000 0000                      ori.b   #$0, D0
8cb28: 0000 0000                      ori.b   #$0, D0
8cb2c: 0000 0000                      ori.b   #$0, D0
8cb30: 0000 0000                      ori.b   #$0, D0
8cb34: 0000 0000                      ori.b   #$0, D0
8cb38: 0000 0000                      ori.b   #$0, D0
8cb3c: 0000 0000                      ori.b   #$0, D0
8cb40: 0000 0000                      ori.b   #$0, D0
8cb44: 0000 0000                      ori.b   #$0, D0
8cb48: 0000 0000                      ori.b   #$0, D0
8cb4c: 0000 0000                      ori.b   #$0, D0
8cb50: 0000 0000                      ori.b   #$0, D0
8cb54: 0000 0000                      ori.b   #$0, D0
8cb58: 0000 0000                      ori.b   #$0, D0
8cb5c: 0000 0000                      ori.b   #$0, D0
8cb60: 0000 0000                      ori.b   #$0, D0
8cb64: 0000 0000                      ori.b   #$0, D0
8cb68: 0000 0000                      ori.b   #$0, D0
8cb6c: 0000 0000                      ori.b   #$0, D0
8cb70: 0000 0000                      ori.b   #$0, D0
8cb74: 0000 0000                      ori.b   #$0, D0
8cb78: 0000 0000                      ori.b   #$0, D0
8cb7c: 0000 0000                      ori.b   #$0, D0
8cb80: 0000 0000                      ori.b   #$0, D0
8cb84: 0000 0000                      ori.b   #$0, D0
8cb88: 0000 0000                      ori.b   #$0, D0
8cb8c: 0000 0000                      ori.b   #$0, D0
8cb90: 0000 0000                      ori.b   #$0, D0
8cb94: 0000 0000                      ori.b   #$0, D0
8cb98: 0000 0000                      ori.b   #$0, D0
8cb9c: 0000 0000                      ori.b   #$0, D0
8cba0: 0000 0000                      ori.b   #$0, D0
8cba4: 0000 0000                      ori.b   #$0, D0
8cba8: 0000 0000                      ori.b   #$0, D0
8cbac: 0000 0000                      ori.b   #$0, D0
8cbb0: 0000 0000                      ori.b   #$0, D0
8cbb4: 0000 0000                      ori.b   #$0, D0
8cbb8: 0000 0000                      ori.b   #$0, D0
8cbbc: 0000 0000                      ori.b   #$0, D0
8cbc0: 0000 0000                      ori.b   #$0, D0
8cbc4: 0000 0000                      ori.b   #$0, D0
8cbc8: 0000 0000                      ori.b   #$0, D0
8cbcc: 0000 0000                      ori.b   #$0, D0
8cbd0: 0000 0000                      ori.b   #$0, D0
8cbd4: 0000 0000                      ori.b   #$0, D0
8cbd8: 0000 0000                      ori.b   #$0, D0
8cbdc: 0000 0000                      ori.b   #$0, D0
8cbe0: 0000 0000                      ori.b   #$0, D0
8cbe4: 0000 0000                      ori.b   #$0, D0
8cbe8: 0000 0000                      ori.b   #$0, D0
8cbec: 0000 0000                      ori.b   #$0, D0
8cbf0: 0000 0000                      ori.b   #$0, D0
8cbf4: 0000 0000                      ori.b   #$0, D0
8cbf8: 0000 0000                      ori.b   #$0, D0
8cbfc: 0000 0000                      ori.b   #$0, D0
8cc00: 0000 0000                      ori.b   #$0, D0
8cc04: 0000 0000                      ori.b   #$0, D0
8cc08: 0000 0000                      ori.b   #$0, D0
8cc0c: 0000 0000                      ori.b   #$0, D0
8cc10: 0000 0000                      ori.b   #$0, D0
8cc14: 0000 0000                      ori.b   #$0, D0
8cc18: 0000 0000                      ori.b   #$0, D0
8cc1c: 0000 0000                      ori.b   #$0, D0
8cc20: 0000 0000                      ori.b   #$0, D0
8cc24: 0000 0000                      ori.b   #$0, D0
8cc28: 0000 0000                      ori.b   #$0, D0
8cc2c: 0000 0000                      ori.b   #$0, D0
8cc30: 0000 0000                      ori.b   #$0, D0
8cc34: 0000 0000                      ori.b   #$0, D0
8cc38: 0000 0000                      ori.b   #$0, D0
8cc3c: 0000 0000                      ori.b   #$0, D0
8cc40: 0000 0000                      ori.b   #$0, D0
8cc44: 0000 0000                      ori.b   #$0, D0
8cc48: 0000 0000                      ori.b   #$0, D0
8cc4c: 0000 0000                      ori.b   #$0, D0
8cc50: 0000 0000                      ori.b   #$0, D0
8cc54: 0000 0000                      ori.b   #$0, D0
8cc58: 0000 0000                      ori.b   #$0, D0
8cc5c: 0000 0000                      ori.b   #$0, D0
8cc60: 0000 0000                      ori.b   #$0, D0
8cc64: 0000 0000                      ori.b   #$0, D0
8cc68: 0000 0000                      ori.b   #$0, D0
8cc6c: 0000 0000                      ori.b   #$0, D0
8cc70: 0000 0000                      ori.b   #$0, D0
8cc74: 0000 0000                      ori.b   #$0, D0
8cc78: 0000 0000                      ori.b   #$0, D0
8cc7c: 0000 0000                      ori.b   #$0, D0
8cc80: 0000 0000                      ori.b   #$0, D0
8cc84: 0000 0000                      ori.b   #$0, D0
8cc88: 0000 0000                      ori.b   #$0, D0
8cc8c: 0000 0000                      ori.b   #$0, D0
8cc90: 0000 0000                      ori.b   #$0, D0
8cc94: 0000 0000                      ori.b   #$0, D0
8cc98: 0000 0000                      ori.b   #$0, D0
8cc9c: 0000 0000                      ori.b   #$0, D0
8cca0: 0000 0000                      ori.b   #$0, D0
8cca4: 0000 0000                      ori.b   #$0, D0
8cca8: 0000 0000                      ori.b   #$0, D0
8ccac: 0000 0000                      ori.b   #$0, D0
8ccb0: 0000 0000                      ori.b   #$0, D0
8ccb4: 0000 0000                      ori.b   #$0, D0
8ccb8: 0000 0000                      ori.b   #$0, D0
8ccbc: 0000 0000                      ori.b   #$0, D0
8ccc0: 0000 0000                      ori.b   #$0, D0
8ccc4: 0000 0000                      ori.b   #$0, D0
8ccc8: 0000 0000                      ori.b   #$0, D0
8cccc: 0000 0000                      ori.b   #$0, D0
8ccd0: 0000 0000                      ori.b   #$0, D0
8ccd4: 0000 0000                      ori.b   #$0, D0
8ccd8: 0000 0000                      ori.b   #$0, D0
8ccdc: 0000 0000                      ori.b   #$0, D0
8cce0: 0000 0000                      ori.b   #$0, D0
8cce4: 0000 0000                      ori.b   #$0, D0
8cce8: 0000 0000                      ori.b   #$0, D0
8ccec: 0000 0008                      ori.b   #$8, D0
8ccf0: aaf2                           dc.w    $aaf2; opcode 1010
8ccf2: 0001 8007                      ori.b   #$7, D1
8ccf6: 3764 0003                      move.w  -(A4), ($3,A3)
8ccfa: 0000 0000                      ori.b   #$0, D0
8ccfe: 0000 0000                      ori.b   #$0, D0
